
C:/diy-x86os-master/start/new_start/build/source/kernel/kernel.elf:     file format elf32-i386
C:/diy-x86os-master/start/new_start/build/source/kernel/kernel.elf
architecture: i386, flags 0x00000112:
EXEC_P, HAS_SYMS, D_PAGED
start address 0x00010000

Program Header:
    LOAD off    0x00001000 vaddr 0x00010000 paddr 0x00010000 align 2**12
         filesz 0x00009eac memsz 0x00009eac flags r-x
    LOAD off    0x0000b000 vaddr 0x0001a000 paddr 0x0001a000 align 2**12
         filesz 0x00000178 memsz 0x000460c0 flags rw-
    LOAD off    0x0000c000 vaddr 0x80000000 paddr 0x000600c0 align 2**12
         filesz 0x00000387 memsz 0x00000387 flags rwx

Sections:
Idx Name          Size      VMA       LMA       File off  Algn
  0 .text         00008af3  00010000  00010000  00001000  2**0
                  CONTENTS, ALLOC, LOAD, READONLY, CODE
  1 .rodata       000013ac  00018b00  00018b00  00009b00  2**5
                  CONTENTS, ALLOC, LOAD, READONLY, DATA
  2 .data         00000178  0001a000  0001a000  0000b000  2**5
                  CONTENTS, ALLOC, LOAD, DATA
  3 .bss          000450c0  0001b000  0001b000  0000b178  2**12
                  ALLOC
  4 .first_task   00000387  80000000  000600c0  0000c000  2**0
                  CONTENTS, ALLOC, LOAD, CODE
  5 .debug_line   0000501c  00000000  00000000  0000c387  2**0
                  CONTENTS, READONLY, DEBUGGING
  6 .debug_info   00012cb4  00000000  00000000  000113a3  2**0
                  CONTENTS, READONLY, DEBUGGING
  7 .debug_abbrev 00003224  00000000  00000000  00024057  2**0
                  CONTENTS, READONLY, DEBUGGING
  8 .debug_aranges 00000340  00000000  00000000  00027280  2**3
                  CONTENTS, READONLY, DEBUGGING
  9 .debug_ranges 000000d8  00000000  00000000  000275c0  2**0
                  CONTENTS, READONLY, DEBUGGING
 10 .debug_str    00002d27  00000000  00000000  00027698  2**0
                  CONTENTS, READONLY, DEBUGGING
 11 .comment      00000011  00000000  00000000  0002a3bf  2**0
                  CONTENTS, READONLY
 12 .debug_frame  00002ba8  00000000  00000000  0002a3d0  2**2
                  CONTENTS, READONLY, DEBUGGING
SYMBOL TABLE:
00010000 l    d  .text	00000000 .text
00018b00 l    d  .rodata	00000000 .rodata
0001a000 l    d  .data	00000000 .data
0001b000 l    d  .bss	00000000 .bss
80000000 l    d  .first_task	00000000 .first_task
00000000 l    d  .debug_line	00000000 .debug_line
00000000 l    d  .debug_info	00000000 .debug_info
00000000 l    d  .debug_abbrev	00000000 .debug_abbrev
00000000 l    d  .debug_aranges	00000000 .debug_aranges
00000000 l    d  .debug_ranges	00000000 .debug_ranges
00000000 l    d  .debug_str	00000000 .debug_str
00000000 l    d  .comment	00000000 .comment
00000000 l    d  .debug_frame	00000000 .debug_frame
00000000 l    df *ABS*	00000000 CMakeFiles/kernel.dir/init/start.S.obj
00010010 l       .text	00000000 gdt_reload
00000000 l    df *ABS*	00000000 memory.c
00010323 l     F .text	00000017 up2
0001033a l     F .text	0000000d down2
00010347 l     F .text	0000000c write_cr3
00010353 l     F .text	00000014 pde_index
00010367 l     F .text	00000027 pde_paddr
0001038e l     F .text	00000010 pte_index
0001039e l     F .text	00000027 pte_paddr
000103c5 l     F .text	0000000f get_pte_perm
000103d4 l     F .text	00000011 mmu_set_page_dir
0001b000 l     O .bss	00000028 paddr_alloc
0001c000 l     O .bss	00001000 kernel_page_dir
000103e5 l     F .text	00000013 current_page_dir
000103f8 l     F .text	00000058 addr_alloc_init
00010450 l     F .text	00000067 addr_alloc_page
000104b7 l     F .text	00000062 addr_free_page
00010519 l     F .text	00000066 show_mem_info
0001057f l     F .text	0000003c total_mem_size
00018c6c l     O .rodata	00000012 __func__.2383
0001a000 l     O .data	00000050 kernel_map.2395
00018c80 l     O .rodata	00000013 __func__.2423
00018c94 l     O .rodata	00000011 __func__.2501
00018ca8 l     O .rodata	0000000c __func__.2508
00018cb4 l     O .rodata	00000009 __func__.2516
00000000 l    df *ABS*	00000000 syscall.c
00018cc0 l     O .rodata	00000194 sys_table
00000000 l    df *ABS*	00000000 task.c
00010fc1 l     F .text	0000000c write_cr3
00010fcd l     F .text	00000007 hlt
00010fd4 l     F .text	0000000c write_tr
00010fe0 l     F .text	0000001b list_node_init
00010ffb l     F .text	0000000b list_node_next
00011006 l     F .text	0000000b list_count
00011011 l     F .text	0000000a list_first
0001101b l     F .text	00000011 mmu_set_page_dir
0001d000 l     O .bss	000005c0 task_manager
0001d5c0 l     O .bss	00001000 idle_task_stack
0001e5c0 l     O .bss	00016400 task_table
000349c0 l     O .bss	00000014 task_table_mutex
0001102c l     F .text	000001cd tss_init
00019014 l     O .rodata	0000000a __func__.3104
00019020 l     O .rodata	00000010 __func__.3130
0001151c l     F .text	0000000a idle_task_entry
00011666 l     F .text	00000045 task_next_run
00011948 l     F .text	00000069 alloc_task
000119b1 l     F .text	00000030 free_task
00011a45 l     F .text	00000062 copy_opened_files
00011c43 l     F .text	00000129 load_phdr
00019030 l     O .rodata	0000000a __func__.3242
00011d6c l     F .text	00000213 load_elf_file
00011f7f l     F .text	00000130 copy_args
0001903c l     O .rodata	0000000a __func__.3277
00000000 l    df *ABS*	00000000 cpu.c
000124ea l     F .text	00000028 lgdt
00012512 l     F .text	0000001a far_jump
000349e0 l     O .bss	00000800 gdt_table
000351e0 l     O .bss	00000014 mutex
00000000 l    df *ABS*	00000000 irq.c
00012764 l     F .text	0000001d inb
00012781 l     F .text	0000001f outb
000127a0 l     F .text	00000007 cli
000127a7 l     F .text	00000007 sti
000127ae l     F .text	00000011 read_cr2
000127bf l     F .text	00000028 lidt
000127e7 l     F .text	00000007 hlt
000127ee l     F .text	00000010 read_eflags
000127fe l     F .text	0000000b write_eflags
00035200 l     O .bss	00000400 idt_table
00012809 l     F .text	000000ff dump_core_regs
00012908 l     F .text	00000071 do_default_handler
00012d40 l     F .text	00000093 init_pic
00000000 l    df *ABS*	00000000 console.c
00013137 l     F .text	0000001d inb
00013154 l     F .text	0000001f outb
00035600 l     O .bss	00000340 console_buf
00013173 l     F .text	00000074 read_cursor_pos
000131e7 l     F .text	000000c1 update_cursor_pos
00013427 l     F .text	00000091 erase_rows
000134b8 l     F .text	00000088 scroll_up
00013540 l     F .text	00000010 move_to_col0
00013550 l     F .text	00000038 move_next_line
00013588 l     F .text	00000076 move_forward
000135fe l     F .text	00000094 show_char
00013692 l     F .text	00000078 move_backword
0001370a l     F .text	00000085 clear_display
0001378f l     F .text	00000073 move_next_tab
00013925 l     F .text	0000003a erase_backword
0001395f l     F .text	000000b8 write_normal
00013a17 l     F .text	00000029 clear_esc_param
00013a40 l     F .text	00000075 write_esc
00013ab5 l     F .text	00000099 set_font_style
000195e0 l     O .rodata	00000020 color_table.2399
00013b4e l     F .text	00000037 move_left
00013b85 l     F .text	00000049 move_right
00013bce l     F .text	00000033 move_cursor
00013c01 l     F .text	00000051 erase_in_display
00013c52 l     F .text	000000f7 write_esc_square
00000000 l    df *ABS*	00000000 dev.c
0001a050 l     O .data	00000008 dev_desc_tbl
00035940 l     O .bss	00000a00 dev_tbl
00013e46 l     F .text	0000003e is_devid_bad
00000000 l    df *ABS*	00000000 disk.c
00014137 l     F .text	0000001d inb
00014154 l     F .text	0000001f inw
00014173 l     F .text	0000001f outb
00014192 l     F .text	00000021 outw
00036340 l     O .bss	00000250 disk_buf
00036590 l     O .bss	00000014 mutex
000365a4 l     O .bss	00000010 op_sem
000365b4 l     O .bss	00000004 task_on_op
000141b3 l     F .text	00000130 ata_send_cmd
000142e3 l     F .text	00000050 ata_read_data
00014333 l     F .text	00000050 ata_write_data
00014383 l     F .text	0000004b ata_wait_data
000143ce l     F .text	000000fe print_disk_info
000144cc l     F .text	00000119 detect_part_info
000145e5 l     F .text	00000127 identify_disk
00000000 l    df *ABS*	00000000 kbd.c
00014bc1 l     F .text	0000001d inb
00014bde l     F .text	0000001f outb
000365b8 l     O .bss	00000004 kbd_state
000197c0 l     O .rodata	00000200 map_table
00014bfd l     F .text	00000015 get_key
00014c12 l     F .text	0000001a is_make_code
00014cd6 l     F .text	00000045 update_led_status
00014d1b l     F .text	0000003c do_fx_key
00014d57 l     F .text	000001d0 do_normal_key
00014f27 l     F .text	0000008a do_e0_key
000365bc l     O .bss	00000004 recv_state.2129
000365c0 l     O .bss	00000004 inited.2139
00000000 l    df *ABS*	00000000 time.c
000150b3 l     F .text	0000001f outb
000365c4 l     O .bss	00000004 sys_tick
000150fa l     F .text	00000060 init_pit
00000000 l    df *ABS*	00000000 tty.c
000365e0 l     O .bss	000022a0 tty_devs
00038880 l     O .bss	00000004 curr_tty
000152b2 l     F .text	0000004f get_tty
00000000 l    df *ABS*	00000000 devfs.c
0001a0e0 l     O .data	0000000c devfs_type_list
00000000 l    df *ABS*	00000000 fatfs.c
00015939 l     F .text	00000017 up2
00015950 l     F .text	00000059 bread_sector
000159a9 l     F .text	0000003e bwrite_secotr
00015d84 l     F .text	00000087 to_sfn
00015fa7 l     F .text	00000080 read_dir_entry
00016027 l     F .text	000000aa write_dir_entry
000160d1 l     F .text	00000179 expand_file
0001624a l     F .text	000000c2 move_file_pos
00016587 l     F .text	00000065 read_from_diritem
00000000 l    df *ABS*	00000000 file.c
000388a0 l     O .bss	00024000 file_table
0005c8a0 l     O .bss	00000014 file_alloc_mutex
00000000 l    df *ABS*	00000000 fs.c
00016fe2 l     F .text	0000000b list_node_next
00016fed l     F .text	0000000a list_first
0005c8c0 l     O .bss	0000000c mounted_list
0005c8cc l     O .bss	0000000c free_list
0005c8e0 l     O .bss	000017c0 fs_tbl
0005e0a0 l     O .bss	00000004 root_fs
00016ff7 l     F .text	0000001d is_fd_bad
00017014 l     F .text	00000026 get_fs_op
0001703a l     F .text	000001c7 mount
00017201 l     F .text	00000060 mount_list_init
00019d60 l     O .rodata	00000008 __func__.3078
000173ee l     F .text	0000002b fs_protect
00017419 l     F .text	0000002b fs_unprotect
00019d68 l     O .rodata	0000000a __func__.3169
00000000 l    df *ABS*	00000000 init.c
0005e0a4 l     O .bss	00000004 init_boot_info
00019e20 l     O .rodata	00000013 __func__.3085
00000000 l    df *ABS*	00000000 mutex.c
00017d26 l     F .text	0000000b list_count
00000000 l    df *ABS*	00000000 sem.c
00017eb5 l     F .text	0000000b list_count
00000000 l    df *ABS*	00000000 bitmap.c
00000000 l    df *ABS*	00000000 klib.c
00018243 l     F .text	00000007 hlt
0001a174 l     O .data	00000004 num2ch.1951
00000000 l    df *ABS*	00000000 list.c
000187ff l     F .text	00000013 list_is_empty
00000000 l    df *ABS*	00000000 log.c
0005e0a8 l     O .bss	00000014 mutex
0005e0bc l     O .bss	00000004 log_dev_id
00000000 l    df *ABS*	00000000 first_task.c
00000000 l    df *ABS*	00000000 lib_syscall.c
800000cd l     F .first_task	0000004c sys_call
00015f63 g     F .text	00000044 diritem_get_type
0001813b g     F .text	0000003a bitmap_get_bit
0001842d g     F .text	0000004f kernel_memcpy
00017906 g     F .text	000000fc sys_close
00011709 g     F .text	0000000a task_current
00017346 g     F .text	00000050 path_begin_with
800001d1 g     F .first_task	0000001b yield
00013103 g     F .text	0000000b irq_enable_global
00018896 g     F .text	00000064 list_insert_last
00011713 g     F .text	00000032 task_file
000102a5 g       .text	00000000 exception_handler_kbd
00010e06 g     F .text	0000010c sys_sbrk
000117bf g     F .text	00000061 sys_yield
000119e1 g     F .text	00000064 sys_msleep
00012aad g     F .text	0000001c do_handler_segment_not_present
00011607 g     F .text	00000034 task_set_ready
00015c57 g     F .text	0000012d cluster_alloc_free
00018175 g     F .text	0000001b bitmap_is_set
0001847c g     F .text	00000041 kernel_memset
0001401c g     F .text	0000004c dev_write
00017871 g     F .text	00000095 sys_lseek
00015073 g     F .text	00000040 kbd_init
00015ace g     F .text	0000012f cluster_set_next
00010267 g       .text	00000000 exception_handler_virtual_exception
00014b83 g     F .text	00000006 disk_close
00010f2c g     F .text	00000095 do_handler_syscall
0001824a g     F .text	0000002d strings_count
00012746 g     F .text	0000001e cpu_init
000189f7 g     F .text	0000002f log_init
00016cc3 g     F .text	000000f4 fatfs_readdir
00011aa7 g     F .text	0000019c sys_fork
00017cc9 g     F .text	0000005d init_main
0001020c g       .text	00000000 exception_handler_alignment_check
00014b79 g     F .text	0000000a disk_control
000125f9 g     F .text	00000039 gdt_free_sel
00010f12 g     F .text	0000001a sys_print_msg
0001a140 g     O .data	00000034 fatfs_op
000182bd g     F .text	00000047 kernel_strcpy
0001a000 g       .data	00000000 s_data
800001a4 g     F .first_task	0000002d execve
80000147 g     F .first_task	0000001b getpid
00012fe6 g     F .text	0000008b irq_enable
00010028 g       .text	00000000 exception_handler_unknown
00015ed0 g     F .text	00000093 diritem_get_name
00015e0b g     F .text	00000037 diritem_name_match
000100a4 g       .text	00000000 exception_handler_breakpoint
00012a05 g     F .text	0000001c do_handler_overflow
00012cd0 g     F .text	0000001c do_handler_alignment_check
0001066b g     F .text	00000089 memory_create_map
000176e8 g     F .text	000000c5 sys_read
00017396 g     F .text	00000058 path_next_child
00014c8d g     F .text	00000035 kbd_wait_recv_ready
0001691f g     F .text	0000021e fatfs_write
00013378 g     F .text	000000af console_select
000101b3 g       .text	00000000 exception_handler_general_protection
00012ae5 g     F .text	000000d8 do_handler_general_protection
00013820 g     F .text	0000001e restore_cursor
00017fd5 g     F .text	00000029 sem_count
80000010 g     F .first_task	000000bd first_task_main
00012995 g     F .text	0000001c do_handler_divider
00018067 g     F .text	000000d4 bitmap_set_bit
00012a75 g     F .text	0000001c do_handler_double_fault
00016db7 g     F .text	0000000a fatfs_closedir
00012bbd g     F .text	000000f7 do_handler_page_fault
0001630c g     F .text	0000023f fatfs_mount
80000324 g     F .first_task	00000021 isatty
0001677a g     F .text	000001a5 fatfs_read
0001013f g       .text	00000000 exception_handler_double_fault
00012dd3 g     F .text	0000002b pic_send_eoi
00011512 g     F .text	0000000a task_first_task
00010000 g       .text	00000000 s_text
000107af g     F .text	00000085 memory_create_uvm
00017ee3 g     F .text	0000006e sem_wait
00010c4a g     F .text	00000025 memory_alloc_page_for
000150d2 g     F .text	00000028 do_handler_timer
00010196 g       .text	00000000 exception_handler_stack_segment_fault
80000000 g       .first_task	00000000 first_task_entry
00017a4d g     F .text	00000093 sys_fstat
00013fd0 g     F .text	0000004c dev_read
00016bc7 g     F .text	000000df fatfs_seek
00016b3d g     F .text	0000008a fatfs_close
00012d24 g     F .text	0000001c do_handler_virtual_exception
0001590f g     F .text	0000000a devfs_stat
000100c3 g       .text	00000000 exception_handler_overflow
000102e3 g       .text	00000000 simple_switch
000102c4 g       .text	00000000 exception_handler_ide_primary
0001654b g     F .text	0000003c fatfs_unmount
800002d0 g     F .first_task	0000002d lseek
0005e0c0 g     O .bss	00002000 stack
0001470c g     F .text	000000f8 disk_init
00017261 g     F .text	0000008a fs_init
00016f7a g     F .text	00000038 file_inc_ref
00010c89 g     F .text	00000099 memory_free_page
000600c0 g       *ABS*	00000000 s_first_task
00011798 g     F .text	00000027 task_remove_fd
00015608 g     F .text	000000ba tty_control
0001383e g     F .text	000000e7 console_init
000154e7 g     F .text	00000121 tty_read
00011372 g     F .text	0000008f task_uninit
00010b61 g     F .text	000000e9 memory_alloc_for_page_dir
00015919 g     F .text	00000020 devfs_ioctl
000151a9 g     F .text	0000007f tty_fifo_get
000100e2 g       .text	00000000 exception_handler_bound_range
000156c8 g     F .text	0000006d tty_in
00015a10 g     F .text	000000be cluster_get_next
00017f51 g     F .text	00000084 sem_notify
00010ade g     F .text	00000083 memory_copy_uvm_data
00014068 g     F .text	0000004c dev_control
00014fb1 g     F .text	000000c2 do_handler_kbd
00012a3d g     F .text	0000001c do_handler_invalid_opcode
0001015c g       .text	00000000 exception_handler_invalid_tss
00017b33 g     F .text	00000053 sys_readdir
00012cb4 g     F .text	0000001c do_handler_fpu_error
00011423 g     F .text	000000ef task_first_init
00012cec g     F .text	0000001c do_handler_machine_check
80000282 g     F .first_task	0000002d write
00017444 g     F .text	00000182 sys_open
000129b1 g     F .text	0000001c do_handler_Debug
800002fd g     F .first_task	00000027 fstat
00017a02 g     F .text	0000004b sys_isatty
00018837 g     F .text	0000005f list_insert_first
00013e84 g     F .text	0000014c dev_open
000172eb g     F .text	0000005b path_to_num
000116e7 g     F .text	00000022 task_set_wakeup
000129cd g     F .text	0000001c do_handler_NMI
00010047 g       .text	00000000 exception_handler_divider
00015172 g     F .text	00000037 tty_fifo_init
0001a060 g     O .data	00000038 dev_disk_desc
00018304 g     F .text	00000070 kernel_strncpy
000130f8 g     F .text	0000000b irq_disable_global
000177ad g     F .text	000000c4 sys_write
800001ec g     F .first_task	00000021 wait
00060447 g       *ABS*	00000000 mem_free_start
00014c61 g     F .text	0000002c kbd_write
00017c26 g     F .text	0000003d kernel_init
00017ec0 g     F .text	00000023 sem_init
00010000 g       .text	00000000 _start
0001867e g     F .text	0000014b kernel_vsprintf
00018277 g     F .text	00000046 get_file_name
00010120 g       .text	00000000 exception_handler_device_unavailable
00010101 g       .text	00000000 exception_handler_invalid_opcode
000140b4 g     F .text	00000083 dev_close
00013802 g     F .text	0000001e save_cursor
000600c0 g       .bss	00000000 e_data
80000255 g     F .first_task	0000002d read
00017d5f g     F .text	00000097 mutex_lock
00017b86 g     F .text	00000050 sys_closedir
00016dc1 g     F .text	000000ec fatfs_unlink
00011745 g     F .text	00000053 task_alloc_fd
00015905 g     F .text	0000000a devfs_seek
00010229 g       .text	00000000 exception_handler_machine_check
000153fa g     F .text	000000ed tty_write
00012a91 g     F .text	0000001c do_handler_invalid_tss
00000000 g       *ABS*	00000000 kernel_base
00015228 g     F .text	0000008a tty_fifo_put
00060447 g       *ABS*	00000000 e_first_task
000116ab g     F .text	0000003c task_set_sleep
000175c6 g     F .text	0000009e sys_dup
000187c9 g     F .text	00000036 panic
00010286 g       .text	00000000 exception_handler_timer
00012fac g     F .text	0000003a irq_install
000126ab g     F .text	00000088 init_gdt
0001575e g     F .text	00000017 devfs_mount
00015301 g     F .text	000000f9 tty_open
80000189 g     F .first_task	0000001b fork
0001310e g     F .text	00000018 irq_enter_protection
00017d31 g     F .text	0000002e mutex_init
00013071 g     F .text	00000087 irq_disable
80000345 g     F .first_task	00000021 sbrk
0001a100 g     O .data	00000034 devfs_op
0001577b g     F .text	00000127 devfs_open
00010248 g       .text	00000000 exception_handler_smd_exception
00017664 g     F .text	00000084 sys_ioctl
00010834 g     F .text	0000010f memory_destroy_uvm
00017ffe g     F .text	00000016 bitmap_byte_count
00012a59 g     F .text	0000001c do_handler_device_unavailable
00017bd6 g     F .text	00000050 sys_unlink
000159e7 g     F .text	00000029 cluster_is_valid
00016cb0 g     F .text	00000013 fatfs_opendir
00011820 g     F .text	0000003c task_dispatch
00010943 g     F .text	00000155 memory_copy_uvm
000156c2 g     F .text	00000006 tty_close
000158c6 g     F .text	00000024 devfs_write
00017c63 g     F .text	00000066 move_to_first_task
00012733 g     F .text	00000013 switch_to_tss
000158ea g     F .text	0000001b devfs_close
00013d49 g     F .text	000000f7 console_write
00014c2c g     F .text	00000035 kbd_wait_send_ready
80000366 g     F .first_task	00000021 dup
000184bd g     F .text	0000005e kernel_memcmp
000106f4 g     F .text	000000bb create_kernel_table
00018812 g     F .text	00000025 list_init
00012d08 g     F .text	0000001c do_handler_smd_exception
000101d0 g       .text	00000000 exception_handler_page_fault
0001163b g     F .text	0000002b task_set_block
00012979 g     F .text	0000001c do_handler_unknown
00010c6f g     F .text	0000001a memory_alloc_page
000101ed g       .text	00000000 exception_handler_fpu_error
00011401 g     F .text	00000022 task_switch_from_to
00012dfe g     F .text	000001ae irq_init
00017df6 g     F .text	000000bf mutex_unlock
00016fb2 g     F .text	00000030 file_table_init
00013126 g     F .text	00000011 irq_leave_protection
00016f38 g     F .text	00000042 file_free
00014cc2 g     F .text	00000014 kbd_read
00015e42 g     F .text	0000008e diritem_init
80000162 g     F .first_task	00000027 print_msg
00018374 g     F .text	0000003b kernel_strlen
0001252c g     F .text	00000086 segment_desc_set
00012a21 g     F .text	0000001c do_handler_bound_range
000102f8 g       .text	00000000 exception_handler_syscall
00014804 g     F .text	000000f5 disk_open
000165ec g     F .text	0000018e fatfs_open
000188fa g     F .text	00000078 list_remove_first
00019eac g       .rodata	00000000 e_text
000183af g     F .text	0000007e kernel_strncmp
00017ae0 g     F .text	00000053 sys_opendir
00018014 g     F .text	00000053 bitmap_init
00010179 g       .text	00000000 exception_handler_segment_not_present
000132a8 g     F .text	000000d0 console_set_cursor
00010085 g       .text	00000000 exception_handler_NMI
00016ca6 g     F .text	0000000a fatfs_stat
00018190 g     F .text	000000b3 bitmap_alloc_nbits
00016ead g     F .text	0000008b file_alloc
00011526 g     F .text	000000e1 task_manager_init
00011345 g     F .text	0000002d task_start
00010066 g       .text	00000000 exception_handler_Debug
0001185c g     F .text	000000ec task_time_tick
00010d22 g     F .text	000000e4 memory_init
000120af g     F .text	000001bd sys_execve
00014a39 g     F .text	00000140 disk_write
00012282 g     F .text	00000115 sys_wait
00012397 g     F .text	00000153 sys_exit
00015735 g     F .text	00000029 tty_select
00013e40 g     F .text	00000006 console_close
00010a98 g     F .text	00000046 memory_get_paddr
00012ac9 g     F .text	0000001c do_handler_stack_segment_fault
000129e9 g     F .text	0000001c do_handler_breakpoint
00015775 g     F .text	00000006 devfs_unmount
8000020d g     F .first_task	00000021 _exit
000158a2 g     F .text	00000024 devfs_read
00018a26 g     F .text	000000cd log_printf
000111f9 g     F .text	0000014c task_init
000148f9 g     F .text	00000140 disk_read
8000022e g     F .first_task	00000027 open
00015bfd g     F .text	0000005a cluster_free_chain
0001865a g     F .text	00000024 kernel_sprintf
0001226c g     F .text	00000016 sys_getpid
00012632 g     F .text	00000079 gdt_alloc_desc
0001851b g     F .text	0000013f kernel_itoa
00018972 g     F .text	00000085 list_remove
000125b2 g     F .text	00000047 gate_desc_set
80000119 g     F .first_task	0000002e msleep
800002af g     F .first_task	00000021 close
00014b89 g     F .text	00000038 do_handler_ide_primary
000105bb g     F .text	000000b0 find_pte
0001515a g     F .text	00000018 time_init
0001a0a0 g     O .data	00000038 dev_tty_desc



Disassembly of section .text:

00010000 <_start>:
    # 二方法
    # mov 4(%esp), %eax
    # push %eax

    # 三方法
    push 4(%esp)
   10000:	ff 74 24 04          	pushl  0x4(%esp)

    # kernel_init(boot_info)
    call kernel_init
   10004:	e8 1d 7c 00 00       	call   17c26 <kernel_init>

	jmp $KERNEL_SELECTOR_CS, $gdt_reload
   10009:	ea 10 00 01 00 08 00 	ljmp   $0x8,$0x10010

00010010 <gdt_reload>:

gdt_reload:
	mov $KERNEL_SELECTOR_DS, %ax		
   10010:	66 b8 10 00          	mov    $0x10,%ax
	mov %ax, %ds
   10014:	8e d8                	mov    %eax,%ds
    mov %ax, %ss
   10016:	8e d0                	mov    %eax,%ss
    mov %ax, %es
   10018:	8e c0                	mov    %eax,%es
    mov %ax, %fs
   1001a:	8e e0                	mov    %eax,%fs
    mov %ax, %gs
   1001c:	8e e8                	mov    %eax,%gs

	mov $(stack + KERNEL_STACK_SIZE), %esp
   1001e:	bc c0 00 06 00       	mov    $0x600c0,%esp

	jmp init_main
   10023:	e9 a1 7c 00 00       	jmp    17cc9 <init_main>

00010028 <exception_handler_unknown>:

		add $(2*4), %esp
		iret
.endm

exception_handler unknown, -1, 0
   10028:	6a 00                	push   $0x0
   1002a:	6a ff                	push   $0xffffffff
   1002c:	60                   	pusha  
   1002d:	1e                   	push   %ds
   1002e:	06                   	push   %es
   1002f:	0f a0                	push   %fs
   10031:	0f a8                	push   %gs
   10033:	54                   	push   %esp
   10034:	e8 40 29 00 00       	call   12979 <do_handler_unknown>
   10039:	83 c4 04             	add    $0x4,%esp
   1003c:	0f a9                	pop    %gs
   1003e:	0f a1                	pop    %fs
   10040:	07                   	pop    %es
   10041:	1f                   	pop    %ds
   10042:	61                   	popa   
   10043:	83 c4 08             	add    $0x8,%esp
   10046:	cf                   	iret   

00010047 <exception_handler_divider>:
exception_handler divider, 0, 0
   10047:	6a 00                	push   $0x0
   10049:	6a 00                	push   $0x0
   1004b:	60                   	pusha  
   1004c:	1e                   	push   %ds
   1004d:	06                   	push   %es
   1004e:	0f a0                	push   %fs
   10050:	0f a8                	push   %gs
   10052:	54                   	push   %esp
   10053:	e8 3d 29 00 00       	call   12995 <do_handler_divider>
   10058:	83 c4 04             	add    $0x4,%esp
   1005b:	0f a9                	pop    %gs
   1005d:	0f a1                	pop    %fs
   1005f:	07                   	pop    %es
   10060:	1f                   	pop    %ds
   10061:	61                   	popa   
   10062:	83 c4 08             	add    $0x8,%esp
   10065:	cf                   	iret   

00010066 <exception_handler_Debug>:
exception_handler Debug, 1, 0
   10066:	6a 00                	push   $0x0
   10068:	6a 01                	push   $0x1
   1006a:	60                   	pusha  
   1006b:	1e                   	push   %ds
   1006c:	06                   	push   %es
   1006d:	0f a0                	push   %fs
   1006f:	0f a8                	push   %gs
   10071:	54                   	push   %esp
   10072:	e8 3a 29 00 00       	call   129b1 <do_handler_Debug>
   10077:	83 c4 04             	add    $0x4,%esp
   1007a:	0f a9                	pop    %gs
   1007c:	0f a1                	pop    %fs
   1007e:	07                   	pop    %es
   1007f:	1f                   	pop    %ds
   10080:	61                   	popa   
   10081:	83 c4 08             	add    $0x8,%esp
   10084:	cf                   	iret   

00010085 <exception_handler_NMI>:
exception_handler NMI, 2, 0
   10085:	6a 00                	push   $0x0
   10087:	6a 02                	push   $0x2
   10089:	60                   	pusha  
   1008a:	1e                   	push   %ds
   1008b:	06                   	push   %es
   1008c:	0f a0                	push   %fs
   1008e:	0f a8                	push   %gs
   10090:	54                   	push   %esp
   10091:	e8 37 29 00 00       	call   129cd <do_handler_NMI>
   10096:	83 c4 04             	add    $0x4,%esp
   10099:	0f a9                	pop    %gs
   1009b:	0f a1                	pop    %fs
   1009d:	07                   	pop    %es
   1009e:	1f                   	pop    %ds
   1009f:	61                   	popa   
   100a0:	83 c4 08             	add    $0x8,%esp
   100a3:	cf                   	iret   

000100a4 <exception_handler_breakpoint>:
exception_handler breakpoint, 3, 0
   100a4:	6a 00                	push   $0x0
   100a6:	6a 03                	push   $0x3
   100a8:	60                   	pusha  
   100a9:	1e                   	push   %ds
   100aa:	06                   	push   %es
   100ab:	0f a0                	push   %fs
   100ad:	0f a8                	push   %gs
   100af:	54                   	push   %esp
   100b0:	e8 34 29 00 00       	call   129e9 <do_handler_breakpoint>
   100b5:	83 c4 04             	add    $0x4,%esp
   100b8:	0f a9                	pop    %gs
   100ba:	0f a1                	pop    %fs
   100bc:	07                   	pop    %es
   100bd:	1f                   	pop    %ds
   100be:	61                   	popa   
   100bf:	83 c4 08             	add    $0x8,%esp
   100c2:	cf                   	iret   

000100c3 <exception_handler_overflow>:
exception_handler overflow, 4, 0
   100c3:	6a 00                	push   $0x0
   100c5:	6a 04                	push   $0x4
   100c7:	60                   	pusha  
   100c8:	1e                   	push   %ds
   100c9:	06                   	push   %es
   100ca:	0f a0                	push   %fs
   100cc:	0f a8                	push   %gs
   100ce:	54                   	push   %esp
   100cf:	e8 31 29 00 00       	call   12a05 <do_handler_overflow>
   100d4:	83 c4 04             	add    $0x4,%esp
   100d7:	0f a9                	pop    %gs
   100d9:	0f a1                	pop    %fs
   100db:	07                   	pop    %es
   100dc:	1f                   	pop    %ds
   100dd:	61                   	popa   
   100de:	83 c4 08             	add    $0x8,%esp
   100e1:	cf                   	iret   

000100e2 <exception_handler_bound_range>:
exception_handler bound_range, 5, 0
   100e2:	6a 00                	push   $0x0
   100e4:	6a 05                	push   $0x5
   100e6:	60                   	pusha  
   100e7:	1e                   	push   %ds
   100e8:	06                   	push   %es
   100e9:	0f a0                	push   %fs
   100eb:	0f a8                	push   %gs
   100ed:	54                   	push   %esp
   100ee:	e8 2e 29 00 00       	call   12a21 <do_handler_bound_range>
   100f3:	83 c4 04             	add    $0x4,%esp
   100f6:	0f a9                	pop    %gs
   100f8:	0f a1                	pop    %fs
   100fa:	07                   	pop    %es
   100fb:	1f                   	pop    %ds
   100fc:	61                   	popa   
   100fd:	83 c4 08             	add    $0x8,%esp
   10100:	cf                   	iret   

00010101 <exception_handler_invalid_opcode>:
exception_handler invalid_opcode, 6, 0
   10101:	6a 00                	push   $0x0
   10103:	6a 06                	push   $0x6
   10105:	60                   	pusha  
   10106:	1e                   	push   %ds
   10107:	06                   	push   %es
   10108:	0f a0                	push   %fs
   1010a:	0f a8                	push   %gs
   1010c:	54                   	push   %esp
   1010d:	e8 2b 29 00 00       	call   12a3d <do_handler_invalid_opcode>
   10112:	83 c4 04             	add    $0x4,%esp
   10115:	0f a9                	pop    %gs
   10117:	0f a1                	pop    %fs
   10119:	07                   	pop    %es
   1011a:	1f                   	pop    %ds
   1011b:	61                   	popa   
   1011c:	83 c4 08             	add    $0x8,%esp
   1011f:	cf                   	iret   

00010120 <exception_handler_device_unavailable>:
exception_handler device_unavailable, 7, 0
   10120:	6a 00                	push   $0x0
   10122:	6a 07                	push   $0x7
   10124:	60                   	pusha  
   10125:	1e                   	push   %ds
   10126:	06                   	push   %es
   10127:	0f a0                	push   %fs
   10129:	0f a8                	push   %gs
   1012b:	54                   	push   %esp
   1012c:	e8 28 29 00 00       	call   12a59 <do_handler_device_unavailable>
   10131:	83 c4 04             	add    $0x4,%esp
   10134:	0f a9                	pop    %gs
   10136:	0f a1                	pop    %fs
   10138:	07                   	pop    %es
   10139:	1f                   	pop    %ds
   1013a:	61                   	popa   
   1013b:	83 c4 08             	add    $0x8,%esp
   1013e:	cf                   	iret   

0001013f <exception_handler_double_fault>:
exception_handler double_fault, 8, 1
   1013f:	6a 08                	push   $0x8
   10141:	60                   	pusha  
   10142:	1e                   	push   %ds
   10143:	06                   	push   %es
   10144:	0f a0                	push   %fs
   10146:	0f a8                	push   %gs
   10148:	54                   	push   %esp
   10149:	e8 27 29 00 00       	call   12a75 <do_handler_double_fault>
   1014e:	83 c4 04             	add    $0x4,%esp
   10151:	0f a9                	pop    %gs
   10153:	0f a1                	pop    %fs
   10155:	07                   	pop    %es
   10156:	1f                   	pop    %ds
   10157:	61                   	popa   
   10158:	83 c4 08             	add    $0x8,%esp
   1015b:	cf                   	iret   

0001015c <exception_handler_invalid_tss>:
exception_handler invalid_tss, 10, 1
   1015c:	6a 0a                	push   $0xa
   1015e:	60                   	pusha  
   1015f:	1e                   	push   %ds
   10160:	06                   	push   %es
   10161:	0f a0                	push   %fs
   10163:	0f a8                	push   %gs
   10165:	54                   	push   %esp
   10166:	e8 26 29 00 00       	call   12a91 <do_handler_invalid_tss>
   1016b:	83 c4 04             	add    $0x4,%esp
   1016e:	0f a9                	pop    %gs
   10170:	0f a1                	pop    %fs
   10172:	07                   	pop    %es
   10173:	1f                   	pop    %ds
   10174:	61                   	popa   
   10175:	83 c4 08             	add    $0x8,%esp
   10178:	cf                   	iret   

00010179 <exception_handler_segment_not_present>:
exception_handler segment_not_present, 11, 1
   10179:	6a 0b                	push   $0xb
   1017b:	60                   	pusha  
   1017c:	1e                   	push   %ds
   1017d:	06                   	push   %es
   1017e:	0f a0                	push   %fs
   10180:	0f a8                	push   %gs
   10182:	54                   	push   %esp
   10183:	e8 25 29 00 00       	call   12aad <do_handler_segment_not_present>
   10188:	83 c4 04             	add    $0x4,%esp
   1018b:	0f a9                	pop    %gs
   1018d:	0f a1                	pop    %fs
   1018f:	07                   	pop    %es
   10190:	1f                   	pop    %ds
   10191:	61                   	popa   
   10192:	83 c4 08             	add    $0x8,%esp
   10195:	cf                   	iret   

00010196 <exception_handler_stack_segment_fault>:
exception_handler stack_segment_fault, 12, 1
   10196:	6a 0c                	push   $0xc
   10198:	60                   	pusha  
   10199:	1e                   	push   %ds
   1019a:	06                   	push   %es
   1019b:	0f a0                	push   %fs
   1019d:	0f a8                	push   %gs
   1019f:	54                   	push   %esp
   101a0:	e8 24 29 00 00       	call   12ac9 <do_handler_stack_segment_fault>
   101a5:	83 c4 04             	add    $0x4,%esp
   101a8:	0f a9                	pop    %gs
   101aa:	0f a1                	pop    %fs
   101ac:	07                   	pop    %es
   101ad:	1f                   	pop    %ds
   101ae:	61                   	popa   
   101af:	83 c4 08             	add    $0x8,%esp
   101b2:	cf                   	iret   

000101b3 <exception_handler_general_protection>:
exception_handler general_protection, 13, 1
   101b3:	6a 0d                	push   $0xd
   101b5:	60                   	pusha  
   101b6:	1e                   	push   %ds
   101b7:	06                   	push   %es
   101b8:	0f a0                	push   %fs
   101ba:	0f a8                	push   %gs
   101bc:	54                   	push   %esp
   101bd:	e8 23 29 00 00       	call   12ae5 <do_handler_general_protection>
   101c2:	83 c4 04             	add    $0x4,%esp
   101c5:	0f a9                	pop    %gs
   101c7:	0f a1                	pop    %fs
   101c9:	07                   	pop    %es
   101ca:	1f                   	pop    %ds
   101cb:	61                   	popa   
   101cc:	83 c4 08             	add    $0x8,%esp
   101cf:	cf                   	iret   

000101d0 <exception_handler_page_fault>:
exception_handler page_fault, 14, 1
   101d0:	6a 0e                	push   $0xe
   101d2:	60                   	pusha  
   101d3:	1e                   	push   %ds
   101d4:	06                   	push   %es
   101d5:	0f a0                	push   %fs
   101d7:	0f a8                	push   %gs
   101d9:	54                   	push   %esp
   101da:	e8 de 29 00 00       	call   12bbd <do_handler_page_fault>
   101df:	83 c4 04             	add    $0x4,%esp
   101e2:	0f a9                	pop    %gs
   101e4:	0f a1                	pop    %fs
   101e6:	07                   	pop    %es
   101e7:	1f                   	pop    %ds
   101e8:	61                   	popa   
   101e9:	83 c4 08             	add    $0x8,%esp
   101ec:	cf                   	iret   

000101ed <exception_handler_fpu_error>:
exception_handler fpu_error, 16, 0
   101ed:	6a 00                	push   $0x0
   101ef:	6a 10                	push   $0x10
   101f1:	60                   	pusha  
   101f2:	1e                   	push   %ds
   101f3:	06                   	push   %es
   101f4:	0f a0                	push   %fs
   101f6:	0f a8                	push   %gs
   101f8:	54                   	push   %esp
   101f9:	e8 b6 2a 00 00       	call   12cb4 <do_handler_fpu_error>
   101fe:	83 c4 04             	add    $0x4,%esp
   10201:	0f a9                	pop    %gs
   10203:	0f a1                	pop    %fs
   10205:	07                   	pop    %es
   10206:	1f                   	pop    %ds
   10207:	61                   	popa   
   10208:	83 c4 08             	add    $0x8,%esp
   1020b:	cf                   	iret   

0001020c <exception_handler_alignment_check>:
exception_handler alignment_check, 17, 1
   1020c:	6a 11                	push   $0x11
   1020e:	60                   	pusha  
   1020f:	1e                   	push   %ds
   10210:	06                   	push   %es
   10211:	0f a0                	push   %fs
   10213:	0f a8                	push   %gs
   10215:	54                   	push   %esp
   10216:	e8 b5 2a 00 00       	call   12cd0 <do_handler_alignment_check>
   1021b:	83 c4 04             	add    $0x4,%esp
   1021e:	0f a9                	pop    %gs
   10220:	0f a1                	pop    %fs
   10222:	07                   	pop    %es
   10223:	1f                   	pop    %ds
   10224:	61                   	popa   
   10225:	83 c4 08             	add    $0x8,%esp
   10228:	cf                   	iret   

00010229 <exception_handler_machine_check>:
exception_handler machine_check, 18, 0
   10229:	6a 00                	push   $0x0
   1022b:	6a 12                	push   $0x12
   1022d:	60                   	pusha  
   1022e:	1e                   	push   %ds
   1022f:	06                   	push   %es
   10230:	0f a0                	push   %fs
   10232:	0f a8                	push   %gs
   10234:	54                   	push   %esp
   10235:	e8 b2 2a 00 00       	call   12cec <do_handler_machine_check>
   1023a:	83 c4 04             	add    $0x4,%esp
   1023d:	0f a9                	pop    %gs
   1023f:	0f a1                	pop    %fs
   10241:	07                   	pop    %es
   10242:	1f                   	pop    %ds
   10243:	61                   	popa   
   10244:	83 c4 08             	add    $0x8,%esp
   10247:	cf                   	iret   

00010248 <exception_handler_smd_exception>:
exception_handler smd_exception, 19, 0
   10248:	6a 00                	push   $0x0
   1024a:	6a 13                	push   $0x13
   1024c:	60                   	pusha  
   1024d:	1e                   	push   %ds
   1024e:	06                   	push   %es
   1024f:	0f a0                	push   %fs
   10251:	0f a8                	push   %gs
   10253:	54                   	push   %esp
   10254:	e8 af 2a 00 00       	call   12d08 <do_handler_smd_exception>
   10259:	83 c4 04             	add    $0x4,%esp
   1025c:	0f a9                	pop    %gs
   1025e:	0f a1                	pop    %fs
   10260:	07                   	pop    %es
   10261:	1f                   	pop    %ds
   10262:	61                   	popa   
   10263:	83 c4 08             	add    $0x8,%esp
   10266:	cf                   	iret   

00010267 <exception_handler_virtual_exception>:
exception_handler virtual_exception, 20, 0
   10267:	6a 00                	push   $0x0
   10269:	6a 14                	push   $0x14
   1026b:	60                   	pusha  
   1026c:	1e                   	push   %ds
   1026d:	06                   	push   %es
   1026e:	0f a0                	push   %fs
   10270:	0f a8                	push   %gs
   10272:	54                   	push   %esp
   10273:	e8 ac 2a 00 00       	call   12d24 <do_handler_virtual_exception>
   10278:	83 c4 04             	add    $0x4,%esp
   1027b:	0f a9                	pop    %gs
   1027d:	0f a1                	pop    %fs
   1027f:	07                   	pop    %es
   10280:	1f                   	pop    %ds
   10281:	61                   	popa   
   10282:	83 c4 08             	add    $0x8,%esp
   10285:	cf                   	iret   

00010286 <exception_handler_timer>:

exception_handler timer, 0x20, 0
   10286:	6a 00                	push   $0x0
   10288:	6a 20                	push   $0x20
   1028a:	60                   	pusha  
   1028b:	1e                   	push   %ds
   1028c:	06                   	push   %es
   1028d:	0f a0                	push   %fs
   1028f:	0f a8                	push   %gs
   10291:	54                   	push   %esp
   10292:	e8 3b 4e 00 00       	call   150d2 <do_handler_timer>
   10297:	83 c4 04             	add    $0x4,%esp
   1029a:	0f a9                	pop    %gs
   1029c:	0f a1                	pop    %fs
   1029e:	07                   	pop    %es
   1029f:	1f                   	pop    %ds
   102a0:	61                   	popa   
   102a1:	83 c4 08             	add    $0x8,%esp
   102a4:	cf                   	iret   

000102a5 <exception_handler_kbd>:
exception_handler kbd, 0x21, 0
   102a5:	6a 00                	push   $0x0
   102a7:	6a 21                	push   $0x21
   102a9:	60                   	pusha  
   102aa:	1e                   	push   %ds
   102ab:	06                   	push   %es
   102ac:	0f a0                	push   %fs
   102ae:	0f a8                	push   %gs
   102b0:	54                   	push   %esp
   102b1:	e8 fb 4c 00 00       	call   14fb1 <do_handler_kbd>
   102b6:	83 c4 04             	add    $0x4,%esp
   102b9:	0f a9                	pop    %gs
   102bb:	0f a1                	pop    %fs
   102bd:	07                   	pop    %es
   102be:	1f                   	pop    %ds
   102bf:	61                   	popa   
   102c0:	83 c4 08             	add    $0x8,%esp
   102c3:	cf                   	iret   

000102c4 <exception_handler_ide_primary>:
exception_handler ide_primary, 0x2E, 0
   102c4:	6a 00                	push   $0x0
   102c6:	6a 2e                	push   $0x2e
   102c8:	60                   	pusha  
   102c9:	1e                   	push   %ds
   102ca:	06                   	push   %es
   102cb:	0f a0                	push   %fs
   102cd:	0f a8                	push   %gs
   102cf:	54                   	push   %esp
   102d0:	e8 b4 48 00 00       	call   14b89 <do_handler_ide_primary>
   102d5:	83 c4 04             	add    $0x4,%esp
   102d8:	0f a9                	pop    %gs
   102da:	0f a1                	pop    %fs
   102dc:	07                   	pop    %es
   102dd:	1f                   	pop    %ds
   102de:	61                   	popa   
   102df:	83 c4 08             	add    $0x8,%esp
   102e2:	cf                   	iret   

000102e3 <simple_switch>:


	.text
	.global simple_switch
simple_switch:
	movl 4(%esp), %eax   
   102e3:	8b 44 24 04          	mov    0x4(%esp),%eax
	movl 8(%esp), %edx   
   102e7:	8b 54 24 08          	mov    0x8(%esp),%edx

	push %ebp
   102eb:	55                   	push   %ebp
	push %ebx
   102ec:	53                   	push   %ebx
	push %esi
   102ed:	56                   	push   %esi
	push %edi
   102ee:	57                   	push   %edi

	mov %esp, (%eax)    
   102ef:	89 20                	mov    %esp,(%eax)
  	mov %edx, %esp     
   102f1:	89 d4                	mov    %edx,%esp

	pop %edi
   102f3:	5f                   	pop    %edi
	pop %esi
   102f4:	5e                   	pop    %esi
	pop %ebx
   102f5:	5b                   	pop    %ebx
	pop %ebp
   102f6:	5d                   	pop    %ebp
  	ret
   102f7:	c3                   	ret    

000102f8 <exception_handler_syscall>:

     .global exception_handler_syscall
    .extern do_handler_syscall
exception_handler_syscall:
	pusha
   102f8:	60                   	pusha  
	push %ds
   102f9:	1e                   	push   %ds
	push %es
   102fa:	06                   	push   %es
	push %fs
   102fb:	0f a0                	push   %fs
	push %gs
   102fd:	0f a8                	push   %gs
	pushf
   102ff:	9c                   	pushf  

	mov $(KERNEL_SELECTOR_DS), %eax
   10300:	b8 10 00 00 00       	mov    $0x10,%eax
	mov %eax, %ds
   10305:	8e d8                	mov    %eax,%ds
	mov %eax, %es
   10307:	8e c0                	mov    %eax,%es
	mov %eax, %fs
   10309:	8e e0                	mov    %eax,%fs
	mov %eax, %gs
   1030b:	8e e8                	mov    %eax,%gs

    mov %esp, %eax
   1030d:	89 e0                	mov    %esp,%eax
    push %eax
   1030f:	50                   	push   %eax
	call do_handler_syscall
   10310:	e8 17 0c 00 00       	call   10f2c <do_handler_syscall>
	add $4, %esp
   10315:	83 c4 04             	add    $0x4,%esp

	popf
   10318:	9d                   	popf   
	pop %gs
   10319:	0f a9                	pop    %gs
	pop %fs
   1031b:	0f a1                	pop    %fs
	pop %es
   1031d:	07                   	pop    %es
	pop %ds
   1031e:	1f                   	pop    %ds
	popa
   1031f:	61                   	popa   
	
   10320:	ca 14 00             	lret   $0x14

00010323 <up2>:

#include <stdarg.h>
#include "comm/types.h"

 
static inline uint32_t up2 (uint32_t size, uint32_t bound) {
   10323:	55                   	push   %ebp
   10324:	89 e5                	mov    %esp,%ebp
    return (size + bound - 1) & ~(bound - 1);
   10326:	8b 55 08             	mov    0x8(%ebp),%edx
   10329:	8b 45 0c             	mov    0xc(%ebp),%eax
   1032c:	01 d0                	add    %edx,%eax
   1032e:	8d 50 ff             	lea    -0x1(%eax),%edx
   10331:	8b 45 0c             	mov    0xc(%ebp),%eax
   10334:	f7 d8                	neg    %eax
   10336:	21 d0                	and    %edx,%eax
}
   10338:	5d                   	pop    %ebp
   10339:	c3                   	ret    

0001033a <down2>:

 
static inline uint32_t down2 (uint32_t size, uint32_t bound) {
   1033a:	55                   	push   %ebp
   1033b:	89 e5                	mov    %esp,%ebp
    return size & ~(bound - 1);
   1033d:	8b 45 0c             	mov    0xc(%ebp),%eax
   10340:	f7 d8                	neg    %eax
   10342:	23 45 08             	and    0x8(%ebp),%eax
}
   10345:	5d                   	pop    %ebp
   10346:	c3                   	ret    

00010347 <write_cr3>:
	uint32_t cr2;
	__asm__ __volatile__("mov %%cr2, %[v]":[v]"=r"(cr2));
	return cr2;
}

static inline void write_cr3(uint32_t v) {
   10347:	55                   	push   %ebp
   10348:	89 e5                	mov    %esp,%ebp
    __asm__ __volatile__("mov %[v], %%cr3"::[v]"r"(v));
   1034a:	8b 45 08             	mov    0x8(%ebp),%eax
   1034d:	0f 22 d8             	mov    %eax,%cr3
}
   10350:	90                   	nop
   10351:	5d                   	pop    %ebp
   10352:	c3                   	ret    

00010353 <pde_index>:
}pte_t;

#pragma pack()


static inline uint32_t pde_index (uint32_t vaddr) {
   10353:	55                   	push   %ebp
   10354:	89 e5                	mov    %esp,%ebp
   10356:	83 ec 10             	sub    $0x10,%esp
    int index = (vaddr >> 22); 
   10359:	8b 45 08             	mov    0x8(%ebp),%eax
   1035c:	c1 e8 16             	shr    $0x16,%eax
   1035f:	89 45 fc             	mov    %eax,-0x4(%ebp)
    return index;
   10362:	8b 45 fc             	mov    -0x4(%ebp),%eax
}
   10365:	c9                   	leave  
   10366:	c3                   	ret    

00010367 <pde_paddr>:


static inline uint32_t pde_paddr (pde_t * pde) {
   10367:	55                   	push   %ebp
   10368:	89 e5                	mov    %esp,%ebp
    return pde->phy_pt_addr << 12;
   1036a:	8b 45 08             	mov    0x8(%ebp),%eax
   1036d:	0f b6 50 01          	movzbl 0x1(%eax),%edx
   10371:	c0 ea 04             	shr    $0x4,%dl
   10374:	0f b6 d2             	movzbl %dl,%edx
   10377:	0f b6 48 02          	movzbl 0x2(%eax),%ecx
   1037b:	c1 e1 04             	shl    $0x4,%ecx
   1037e:	09 ca                	or     %ecx,%edx
   10380:	0f b6 40 03          	movzbl 0x3(%eax),%eax
   10384:	c1 e0 0c             	shl    $0xc,%eax
   10387:	09 d0                	or     %edx,%eax
   10389:	c1 e0 0c             	shl    $0xc,%eax
}
   1038c:	5d                   	pop    %ebp
   1038d:	c3                   	ret    

0001038e <pte_index>:


static inline int pte_index (uint32_t vaddr) {
   1038e:	55                   	push   %ebp
   1038f:	89 e5                	mov    %esp,%ebp
    return (vaddr >> 12) & 0x3FF;  
   10391:	8b 45 08             	mov    0x8(%ebp),%eax
   10394:	c1 e8 0c             	shr    $0xc,%eax
   10397:	25 ff 03 00 00       	and    $0x3ff,%eax
}
   1039c:	5d                   	pop    %ebp
   1039d:	c3                   	ret    

0001039e <pte_paddr>:


static inline uint32_t pte_paddr (pte_t * pte) {
   1039e:	55                   	push   %ebp
   1039f:	89 e5                	mov    %esp,%ebp
    return pte->phy_page_addr << 12;
   103a1:	8b 45 08             	mov    0x8(%ebp),%eax
   103a4:	0f b6 50 01          	movzbl 0x1(%eax),%edx
   103a8:	c0 ea 04             	shr    $0x4,%dl
   103ab:	0f b6 d2             	movzbl %dl,%edx
   103ae:	0f b6 48 02          	movzbl 0x2(%eax),%ecx
   103b2:	c1 e1 04             	shl    $0x4,%ecx
   103b5:	09 ca                	or     %ecx,%edx
   103b7:	0f b6 40 03          	movzbl 0x3(%eax),%eax
   103bb:	c1 e0 0c             	shl    $0xc,%eax
   103be:	09 d0                	or     %edx,%eax
   103c0:	c1 e0 0c             	shl    $0xc,%eax
}
   103c3:	5d                   	pop    %ebp
   103c4:	c3                   	ret    

000103c5 <get_pte_perm>:


static inline uint32_t get_pte_perm (pte_t * pte) {
   103c5:	55                   	push   %ebp
   103c6:	89 e5                	mov    %esp,%ebp
    return (pte->v & 0x1FF);                  
   103c8:	8b 45 08             	mov    0x8(%ebp),%eax
   103cb:	8b 00                	mov    (%eax),%eax
   103cd:	25 ff 01 00 00       	and    $0x1ff,%eax
}
   103d2:	5d                   	pop    %ebp
   103d3:	c3                   	ret    

000103d4 <mmu_set_page_dir>:



static inline void mmu_set_page_dir (uint32_t paddr) {
   103d4:	55                   	push   %ebp
   103d5:	89 e5                	mov    %esp,%ebp
    write_cr3(paddr);
   103d7:	ff 75 08             	pushl  0x8(%ebp)
   103da:	e8 68 ff ff ff       	call   10347 <write_cr3>
   103df:	83 c4 04             	add    $0x4,%esp
}
   103e2:	90                   	nop
   103e3:	c9                   	leave  
   103e4:	c3                   	ret    

000103e5 <current_page_dir>:
#include "dev/console.h"

static addr_alloc_t paddr_alloc;       
static pde_t kernel_page_dir[PDE_CNT] __attribute__((aligned(MEM_PAGE_SIZE))); 

static pde_t * current_page_dir (void) {
   103e5:	55                   	push   %ebp
   103e6:	89 e5                	mov    %esp,%ebp
   103e8:	83 ec 08             	sub    $0x8,%esp
    return (pde_t *)task_current()->tss.cr3;
   103eb:	e8 19 13 00 00       	call   11709 <task_current>
   103f0:	8b 80 60 02 00 00    	mov    0x260(%eax),%eax
}
   103f6:	c9                   	leave  
   103f7:	c3                   	ret    

000103f8 <addr_alloc_init>:


static void addr_alloc_init (addr_alloc_t * alloc, uint8_t * bits,
                    uint32_t start, uint32_t size, uint32_t page_size) {
   103f8:	55                   	push   %ebp
   103f9:	89 e5                	mov    %esp,%ebp
   103fb:	83 ec 08             	sub    $0x8,%esp
    mutex_init(&alloc->mutex);
   103fe:	8b 45 08             	mov    0x8(%ebp),%eax
   10401:	83 ec 0c             	sub    $0xc,%esp
   10404:	50                   	push   %eax
   10405:	e8 27 79 00 00       	call   17d31 <mutex_init>
   1040a:	83 c4 10             	add    $0x10,%esp
    alloc->start = start;
   1040d:	8b 45 08             	mov    0x8(%ebp),%eax
   10410:	8b 55 10             	mov    0x10(%ebp),%edx
   10413:	89 50 20             	mov    %edx,0x20(%eax)
    alloc->size = size;
   10416:	8b 45 08             	mov    0x8(%ebp),%eax
   10419:	8b 55 14             	mov    0x14(%ebp),%edx
   1041c:	89 50 24             	mov    %edx,0x24(%eax)
    alloc->page_size = page_size;
   1041f:	8b 45 08             	mov    0x8(%ebp),%eax
   10422:	8b 55 18             	mov    0x18(%ebp),%edx
   10425:	89 50 1c             	mov    %edx,0x1c(%eax)
    bitmap_init(&alloc->bitmap, bits, alloc->size / page_size, 0);
   10428:	8b 45 08             	mov    0x8(%ebp),%eax
   1042b:	8b 40 24             	mov    0x24(%eax),%eax
   1042e:	ba 00 00 00 00       	mov    $0x0,%edx
   10433:	f7 75 18             	divl   0x18(%ebp)
   10436:	89 c2                	mov    %eax,%edx
   10438:	8b 45 08             	mov    0x8(%ebp),%eax
   1043b:	83 c0 14             	add    $0x14,%eax
   1043e:	6a 00                	push   $0x0
   10440:	52                   	push   %edx
   10441:	ff 75 0c             	pushl  0xc(%ebp)
   10444:	50                   	push   %eax
   10445:	e8 ca 7b 00 00       	call   18014 <bitmap_init>
   1044a:	83 c4 10             	add    $0x10,%esp
}
   1044d:	90                   	nop
   1044e:	c9                   	leave  
   1044f:	c3                   	ret    

00010450 <addr_alloc_page>:


static uint32_t addr_alloc_page (addr_alloc_t * alloc, int page_count) {
   10450:	55                   	push   %ebp
   10451:	89 e5                	mov    %esp,%ebp
   10453:	83 ec 18             	sub    $0x18,%esp
    uint32_t addr = 0;
   10456:	c7 45 f4 00 00 00 00 	movl   $0x0,-0xc(%ebp)

    mutex_lock(&alloc->mutex);
   1045d:	8b 45 08             	mov    0x8(%ebp),%eax
   10460:	83 ec 0c             	sub    $0xc,%esp
   10463:	50                   	push   %eax
   10464:	e8 f6 78 00 00       	call   17d5f <mutex_lock>
   10469:	83 c4 10             	add    $0x10,%esp

    int page_index = bitmap_alloc_nbits(&alloc->bitmap, 0, page_count);
   1046c:	8b 45 08             	mov    0x8(%ebp),%eax
   1046f:	83 c0 14             	add    $0x14,%eax
   10472:	83 ec 04             	sub    $0x4,%esp
   10475:	ff 75 0c             	pushl  0xc(%ebp)
   10478:	6a 00                	push   $0x0
   1047a:	50                   	push   %eax
   1047b:	e8 10 7d 00 00       	call   18190 <bitmap_alloc_nbits>
   10480:	83 c4 10             	add    $0x10,%esp
   10483:	89 45 f0             	mov    %eax,-0x10(%ebp)
    if (page_index >= 0) {
   10486:	83 7d f0 00          	cmpl   $0x0,-0x10(%ebp)
   1048a:	78 17                	js     104a3 <addr_alloc_page+0x53>
        addr = alloc->start + page_index * alloc->page_size;
   1048c:	8b 45 08             	mov    0x8(%ebp),%eax
   1048f:	8b 50 20             	mov    0x20(%eax),%edx
   10492:	8b 45 08             	mov    0x8(%ebp),%eax
   10495:	8b 48 1c             	mov    0x1c(%eax),%ecx
   10498:	8b 45 f0             	mov    -0x10(%ebp),%eax
   1049b:	0f af c1             	imul   %ecx,%eax
   1049e:	01 d0                	add    %edx,%eax
   104a0:	89 45 f4             	mov    %eax,-0xc(%ebp)
    }

    mutex_unlock(&alloc->mutex);
   104a3:	8b 45 08             	mov    0x8(%ebp),%eax
   104a6:	83 ec 0c             	sub    $0xc,%esp
   104a9:	50                   	push   %eax
   104aa:	e8 47 79 00 00       	call   17df6 <mutex_unlock>
   104af:	83 c4 10             	add    $0x10,%esp
    return addr;
   104b2:	8b 45 f4             	mov    -0xc(%ebp),%eax
}
   104b5:	c9                   	leave  
   104b6:	c3                   	ret    

000104b7 <addr_free_page>:


static void addr_free_page (addr_alloc_t * alloc, uint32_t addr, int page_count) {
   104b7:	55                   	push   %ebp
   104b8:	89 e5                	mov    %esp,%ebp
   104ba:	53                   	push   %ebx
   104bb:	83 ec 14             	sub    $0x14,%esp
    mutex_lock(&alloc->mutex);
   104be:	8b 45 08             	mov    0x8(%ebp),%eax
   104c1:	83 ec 0c             	sub    $0xc,%esp
   104c4:	50                   	push   %eax
   104c5:	e8 95 78 00 00       	call   17d5f <mutex_lock>
   104ca:	83 c4 10             	add    $0x10,%esp

    uint32_t pg_idx = (addr - alloc->start) / alloc->page_size;
   104cd:	8b 45 08             	mov    0x8(%ebp),%eax
   104d0:	8b 40 20             	mov    0x20(%eax),%eax
   104d3:	8b 55 0c             	mov    0xc(%ebp),%edx
   104d6:	89 d1                	mov    %edx,%ecx
   104d8:	29 c1                	sub    %eax,%ecx
   104da:	8b 45 08             	mov    0x8(%ebp),%eax
   104dd:	8b 58 1c             	mov    0x1c(%eax),%ebx
   104e0:	89 c8                	mov    %ecx,%eax
   104e2:	ba 00 00 00 00       	mov    $0x0,%edx
   104e7:	f7 f3                	div    %ebx
   104e9:	89 45 f4             	mov    %eax,-0xc(%ebp)
    bitmap_set_bit(&alloc->bitmap, pg_idx, page_count, 0);
   104ec:	8b 45 f4             	mov    -0xc(%ebp),%eax
   104ef:	8b 55 08             	mov    0x8(%ebp),%edx
   104f2:	83 c2 14             	add    $0x14,%edx
   104f5:	6a 00                	push   $0x0
   104f7:	ff 75 10             	pushl  0x10(%ebp)
   104fa:	50                   	push   %eax
   104fb:	52                   	push   %edx
   104fc:	e8 66 7b 00 00       	call   18067 <bitmap_set_bit>
   10501:	83 c4 10             	add    $0x10,%esp

    mutex_unlock(&alloc->mutex);
   10504:	8b 45 08             	mov    0x8(%ebp),%eax
   10507:	83 ec 0c             	sub    $0xc,%esp
   1050a:	50                   	push   %eax
   1050b:	e8 e6 78 00 00       	call   17df6 <mutex_unlock>
   10510:	83 c4 10             	add    $0x10,%esp
}
   10513:	90                   	nop
   10514:	8b 5d fc             	mov    -0x4(%ebp),%ebx
   10517:	c9                   	leave  
   10518:	c3                   	ret    

00010519 <show_mem_info>:

static void show_mem_info (boot_info_t * boot_info) {
   10519:	55                   	push   %ebp
   1051a:	89 e5                	mov    %esp,%ebp
   1051c:	83 ec 18             	sub    $0x18,%esp
    log_printf("mem region:");
   1051f:	83 ec 0c             	sub    $0xc,%esp
   10522:	68 00 8b 01 00       	push   $0x18b00
   10527:	e8 fa 84 00 00       	call   18a26 <log_printf>
   1052c:	83 c4 10             	add    $0x10,%esp
    for (int i = 0; i < boot_info->ram_region_count; i++) {
   1052f:	c7 45 f4 00 00 00 00 	movl   $0x0,-0xc(%ebp)
   10536:	eb 29                	jmp    10561 <show_mem_info+0x48>
        log_printf("[%d]: 0x%x - 0x%x", i,
   10538:	8b 45 08             	mov    0x8(%ebp),%eax
   1053b:	8b 55 f4             	mov    -0xc(%ebp),%edx
   1053e:	8b 54 d0 04          	mov    0x4(%eax,%edx,8),%edx
   10542:	8b 45 08             	mov    0x8(%ebp),%eax
   10545:	8b 4d f4             	mov    -0xc(%ebp),%ecx
   10548:	8b 04 c8             	mov    (%eax,%ecx,8),%eax
   1054b:	52                   	push   %edx
   1054c:	50                   	push   %eax
   1054d:	ff 75 f4             	pushl  -0xc(%ebp)
   10550:	68 0c 8b 01 00       	push   $0x18b0c
   10555:	e8 cc 84 00 00       	call   18a26 <log_printf>
   1055a:	83 c4 10             	add    $0x10,%esp
    for (int i = 0; i < boot_info->ram_region_count; i++) {
   1055d:	83 45 f4 01          	addl   $0x1,-0xc(%ebp)
   10561:	8b 45 08             	mov    0x8(%ebp),%eax
   10564:	8b 40 50             	mov    0x50(%eax),%eax
   10567:	39 45 f4             	cmp    %eax,-0xc(%ebp)
   1056a:	7c cc                	jl     10538 <show_mem_info+0x1f>
                    boot_info->ram_region_cfg[i].start,
                    boot_info->ram_region_cfg[i].size);
    }
    log_printf("\n");
   1056c:	83 ec 0c             	sub    $0xc,%esp
   1056f:	68 1e 8b 01 00       	push   $0x18b1e
   10574:	e8 ad 84 00 00       	call   18a26 <log_printf>
   10579:	83 c4 10             	add    $0x10,%esp
}
   1057c:	90                   	nop
   1057d:	c9                   	leave  
   1057e:	c3                   	ret    

0001057f <total_mem_size>:

static uint32_t total_mem_size(boot_info_t * boot_info) {
   1057f:	55                   	push   %ebp
   10580:	89 e5                	mov    %esp,%ebp
   10582:	83 ec 10             	sub    $0x10,%esp
    int mem_size = 0;
   10585:	c7 45 fc 00 00 00 00 	movl   $0x0,-0x4(%ebp)

    for (int i = 0; i < boot_info->ram_region_count; i++) {
   1058c:	c7 45 f8 00 00 00 00 	movl   $0x0,-0x8(%ebp)
   10593:	eb 16                	jmp    105ab <total_mem_size+0x2c>
        mem_size += boot_info->ram_region_cfg[i].size;
   10595:	8b 45 08             	mov    0x8(%ebp),%eax
   10598:	8b 55 f8             	mov    -0x8(%ebp),%edx
   1059b:	8b 54 d0 04          	mov    0x4(%eax,%edx,8),%edx
   1059f:	8b 45 fc             	mov    -0x4(%ebp),%eax
   105a2:	01 d0                	add    %edx,%eax
   105a4:	89 45 fc             	mov    %eax,-0x4(%ebp)
    for (int i = 0; i < boot_info->ram_region_count; i++) {
   105a7:	83 45 f8 01          	addl   $0x1,-0x8(%ebp)
   105ab:	8b 45 08             	mov    0x8(%ebp),%eax
   105ae:	8b 40 50             	mov    0x50(%eax),%eax
   105b1:	39 45 f8             	cmp    %eax,-0x8(%ebp)
   105b4:	7c df                	jl     10595 <total_mem_size+0x16>
    }
    return mem_size;
   105b6:	8b 45 fc             	mov    -0x4(%ebp),%eax
}
   105b9:	c9                   	leave  
   105ba:	c3                   	ret    

000105bb <find_pte>:

pte_t * find_pte (pde_t * page_dir, uint32_t vaddr, int alloc) {
   105bb:	55                   	push   %ebp
   105bc:	89 e5                	mov    %esp,%ebp
   105be:	83 ec 18             	sub    $0x18,%esp
    pte_t * page_table;

    pde_t *pde = page_dir + pde_index(vaddr);
   105c1:	ff 75 0c             	pushl  0xc(%ebp)
   105c4:	e8 8a fd ff ff       	call   10353 <pde_index>
   105c9:	83 c4 04             	add    $0x4,%esp
   105cc:	8d 14 85 00 00 00 00 	lea    0x0(,%eax,4),%edx
   105d3:	8b 45 08             	mov    0x8(%ebp),%eax
   105d6:	01 d0                	add    %edx,%eax
   105d8:	89 45 f0             	mov    %eax,-0x10(%ebp)
    if (pde->present) {
   105db:	8b 45 f0             	mov    -0x10(%ebp),%eax
   105de:	0f b6 00             	movzbl (%eax),%eax
   105e1:	83 e0 01             	and    $0x1,%eax
   105e4:	84 c0                	test   %al,%al
   105e6:	74 10                	je     105f8 <find_pte+0x3d>
        page_table = (pte_t *)pde_paddr(pde);
   105e8:	ff 75 f0             	pushl  -0x10(%ebp)
   105eb:	e8 77 fd ff ff       	call   10367 <pde_paddr>
   105f0:	83 c4 04             	add    $0x4,%esp
   105f3:	89 45 f4             	mov    %eax,-0xc(%ebp)
   105f6:	eb 57                	jmp    1064f <find_pte+0x94>
    } else {
        if (alloc == 0) {
   105f8:	83 7d 10 00          	cmpl   $0x0,0x10(%ebp)
   105fc:	75 07                	jne    10605 <find_pte+0x4a>
            return (pte_t *)0;
   105fe:	b8 00 00 00 00       	mov    $0x0,%eax
   10603:	eb 64                	jmp    10669 <find_pte+0xae>
        }

        uint32_t pg_paddr = addr_alloc_page(&paddr_alloc, 1);
   10605:	83 ec 08             	sub    $0x8,%esp
   10608:	6a 01                	push   $0x1
   1060a:	68 00 b0 01 00       	push   $0x1b000
   1060f:	e8 3c fe ff ff       	call   10450 <addr_alloc_page>
   10614:	83 c4 10             	add    $0x10,%esp
   10617:	89 45 ec             	mov    %eax,-0x14(%ebp)
        if (pg_paddr == 0) {
   1061a:	83 7d ec 00          	cmpl   $0x0,-0x14(%ebp)
   1061e:	75 07                	jne    10627 <find_pte+0x6c>
            return (pte_t *)0;
   10620:	b8 00 00 00 00       	mov    $0x0,%eax
   10625:	eb 42                	jmp    10669 <find_pte+0xae>
        }

        pde->v = pg_paddr | PTE_P | PTE_W | PDE_U;
   10627:	8b 45 ec             	mov    -0x14(%ebp),%eax
   1062a:	83 c8 07             	or     $0x7,%eax
   1062d:	89 c2                	mov    %eax,%edx
   1062f:	8b 45 f0             	mov    -0x10(%ebp),%eax
   10632:	89 10                	mov    %edx,(%eax)

        //kernel_pg_last[pde_index(vaddr)].v = pg_paddr | PTE_P | PTE_W;

        page_table = (pte_t *)(pg_paddr);
   10634:	8b 45 ec             	mov    -0x14(%ebp),%eax
   10637:	89 45 f4             	mov    %eax,-0xc(%ebp)
        kernel_memset(page_table, 0, MEM_PAGE_SIZE);
   1063a:	83 ec 04             	sub    $0x4,%esp
   1063d:	68 00 10 00 00       	push   $0x1000
   10642:	6a 00                	push   $0x0
   10644:	ff 75 f4             	pushl  -0xc(%ebp)
   10647:	e8 30 7e 00 00       	call   1847c <kernel_memset>
   1064c:	83 c4 10             	add    $0x10,%esp
    }

    return page_table + pte_index(vaddr);
   1064f:	83 ec 0c             	sub    $0xc,%esp
   10652:	ff 75 0c             	pushl  0xc(%ebp)
   10655:	e8 34 fd ff ff       	call   1038e <pte_index>
   1065a:	83 c4 10             	add    $0x10,%esp
   1065d:	8d 14 85 00 00 00 00 	lea    0x0(,%eax,4),%edx
   10664:	8b 45 f4             	mov    -0xc(%ebp),%eax
   10667:	01 d0                	add    %edx,%eax
}
   10669:	c9                   	leave  
   1066a:	c3                   	ret    

0001066b <memory_create_map>:

int memory_create_map (pde_t * page_dir, uint32_t vaddr, uint32_t paddr, int count, uint32_t perm) {
   1066b:	55                   	push   %ebp
   1066c:	89 e5                	mov    %esp,%ebp
   1066e:	83 ec 18             	sub    $0x18,%esp
    for (int i = 0; i < count; i++) {
   10671:	c7 45 f4 00 00 00 00 	movl   $0x0,-0xc(%ebp)
   10678:	eb 6b                	jmp    106e5 <memory_create_map+0x7a>
        // log_printf("create map: v-0x%x p-0x%x, perm: 0x%x", vaddr, paddr, perm);

        pte_t * pte = find_pte(page_dir, vaddr, 1);
   1067a:	83 ec 04             	sub    $0x4,%esp
   1067d:	6a 01                	push   $0x1
   1067f:	ff 75 0c             	pushl  0xc(%ebp)
   10682:	ff 75 08             	pushl  0x8(%ebp)
   10685:	e8 31 ff ff ff       	call   105bb <find_pte>
   1068a:	83 c4 10             	add    $0x10,%esp
   1068d:	89 45 f0             	mov    %eax,-0x10(%ebp)
        if (pte == (pte_t *)0) {
   10690:	83 7d f0 00          	cmpl   $0x0,-0x10(%ebp)
   10694:	75 07                	jne    1069d <memory_create_map+0x32>
            // log_printf("create pte failed. pte == 0");
            return -1;
   10696:	b8 ff ff ff ff       	mov    $0xffffffff,%eax
   1069b:	eb 55                	jmp    106f2 <memory_create_map+0x87>
        }

        // log_printf("\tpte addr: 0x%x", (uint32_t)pte);
        ASSERT(pte->present == 0);
   1069d:	8b 45 f0             	mov    -0x10(%ebp),%eax
   106a0:	0f b6 00             	movzbl (%eax),%eax
   106a3:	83 e0 01             	and    $0x1,%eax
   106a6:	84 c0                	test   %al,%al
   106a8:	74 19                	je     106c3 <memory_create_map+0x58>
   106aa:	68 20 8b 01 00       	push   $0x18b20
   106af:	68 6c 8c 01 00       	push   $0x18c6c
   106b4:	6a 6c                	push   $0x6c
   106b6:	68 34 8b 01 00       	push   $0x18b34
   106bb:	e8 09 81 00 00       	call   187c9 <panic>
   106c0:	83 c4 10             	add    $0x10,%esp

        pte->v = paddr | perm | PTE_P;
   106c3:	8b 45 10             	mov    0x10(%ebp),%eax
   106c6:	0b 45 18             	or     0x18(%ebp),%eax
   106c9:	83 c8 01             	or     $0x1,%eax
   106cc:	89 c2                	mov    %eax,%edx
   106ce:	8b 45 f0             	mov    -0x10(%ebp),%eax
   106d1:	89 10                	mov    %edx,(%eax)

        vaddr += MEM_PAGE_SIZE;
   106d3:	81 45 0c 00 10 00 00 	addl   $0x1000,0xc(%ebp)
        paddr += MEM_PAGE_SIZE;
   106da:	81 45 10 00 10 00 00 	addl   $0x1000,0x10(%ebp)
    for (int i = 0; i < count; i++) {
   106e1:	83 45 f4 01          	addl   $0x1,-0xc(%ebp)
   106e5:	8b 45 f4             	mov    -0xc(%ebp),%eax
   106e8:	3b 45 14             	cmp    0x14(%ebp),%eax
   106eb:	7c 8d                	jl     1067a <memory_create_map+0xf>
    }

    return 0;
   106ed:	b8 00 00 00 00       	mov    $0x0,%eax
}
   106f2:	c9                   	leave  
   106f3:	c3                   	ret    

000106f4 <create_kernel_table>:

void create_kernel_table (void) {
   106f4:	55                   	push   %ebp
   106f5:	89 e5                	mov    %esp,%ebp
   106f7:	83 ec 28             	sub    $0x28,%esp
        {(void *)CONSOLE_DISP_ADDR, (void *)(CONSOLE_DISP_END - 1), (void *)CONSOLE_VIDEO_BASE, PTE_W},

        {(void *)MEM_EXT_START, (void *)MEM_EXT_END,     (void *)MEM_EXT_START, PTE_W},
    };

    kernel_memset(kernel_page_dir, 0, sizeof(kernel_page_dir));
   106fa:	83 ec 04             	sub    $0x4,%esp
   106fd:	68 00 10 00 00       	push   $0x1000
   10702:	6a 00                	push   $0x0
   10704:	68 00 c0 01 00       	push   $0x1c000
   10709:	e8 6e 7d 00 00       	call   1847c <kernel_memset>
   1070e:	83 c4 10             	add    $0x10,%esp

    for (int i = 0; i < sizeof(kernel_map) / sizeof(memory_map_t); i++) {
   10711:	c7 45 f4 00 00 00 00 	movl   $0x0,-0xc(%ebp)
   10718:	e9 83 00 00 00       	jmp    107a0 <create_kernel_table+0xac>
        memory_map_t * map = kernel_map + i;
   1071d:	8b 45 f4             	mov    -0xc(%ebp),%eax
   10720:	c1 e0 04             	shl    $0x4,%eax
   10723:	05 00 a0 01 00       	add    $0x1a000,%eax
   10728:	89 45 f0             	mov    %eax,-0x10(%ebp)

        int vstart = down2((uint32_t)map->vstart, MEM_PAGE_SIZE);
   1072b:	8b 45 f0             	mov    -0x10(%ebp),%eax
   1072e:	8b 00                	mov    (%eax),%eax
   10730:	83 ec 08             	sub    $0x8,%esp
   10733:	68 00 10 00 00       	push   $0x1000
   10738:	50                   	push   %eax
   10739:	e8 fc fb ff ff       	call   1033a <down2>
   1073e:	83 c4 10             	add    $0x10,%esp
   10741:	89 45 ec             	mov    %eax,-0x14(%ebp)
        int vend = up2((uint32_t)map->vend, MEM_PAGE_SIZE);
   10744:	8b 45 f0             	mov    -0x10(%ebp),%eax
   10747:	8b 40 04             	mov    0x4(%eax),%eax
   1074a:	83 ec 08             	sub    $0x8,%esp
   1074d:	68 00 10 00 00       	push   $0x1000
   10752:	50                   	push   %eax
   10753:	e8 cb fb ff ff       	call   10323 <up2>
   10758:	83 c4 10             	add    $0x10,%esp
   1075b:	89 45 e8             	mov    %eax,-0x18(%ebp)
        int page_count = (vend - vstart) / MEM_PAGE_SIZE;
   1075e:	8b 45 e8             	mov    -0x18(%ebp),%eax
   10761:	2b 45 ec             	sub    -0x14(%ebp),%eax
   10764:	8d 90 ff 0f 00 00    	lea    0xfff(%eax),%edx
   1076a:	85 c0                	test   %eax,%eax
   1076c:	0f 48 c2             	cmovs  %edx,%eax
   1076f:	c1 f8 0c             	sar    $0xc,%eax
   10772:	89 45 e4             	mov    %eax,-0x1c(%ebp)

        memory_create_map(kernel_page_dir, vstart, (uint32_t)map->pstart, page_count, map->perm);
   10775:	8b 45 f0             	mov    -0x10(%ebp),%eax
   10778:	8b 50 0c             	mov    0xc(%eax),%edx
   1077b:	8b 45 f0             	mov    -0x10(%ebp),%eax
   1077e:	8b 40 08             	mov    0x8(%eax),%eax
   10781:	89 c1                	mov    %eax,%ecx
   10783:	8b 45 ec             	mov    -0x14(%ebp),%eax
   10786:	83 ec 0c             	sub    $0xc,%esp
   10789:	52                   	push   %edx
   1078a:	ff 75 e4             	pushl  -0x1c(%ebp)
   1078d:	51                   	push   %ecx
   1078e:	50                   	push   %eax
   1078f:	68 00 c0 01 00       	push   $0x1c000
   10794:	e8 d2 fe ff ff       	call   1066b <memory_create_map>
   10799:	83 c4 20             	add    $0x20,%esp
    for (int i = 0; i < sizeof(kernel_map) / sizeof(memory_map_t); i++) {
   1079c:	83 45 f4 01          	addl   $0x1,-0xc(%ebp)
   107a0:	8b 45 f4             	mov    -0xc(%ebp),%eax
   107a3:	83 f8 04             	cmp    $0x4,%eax
   107a6:	0f 86 71 ff ff ff    	jbe    1071d <create_kernel_table+0x29>
    }
}
   107ac:	90                   	nop
   107ad:	c9                   	leave  
   107ae:	c3                   	ret    

000107af <memory_create_uvm>:

uint32_t memory_create_uvm (void) {
   107af:	55                   	push   %ebp
   107b0:	89 e5                	mov    %esp,%ebp
   107b2:	83 ec 18             	sub    $0x18,%esp
    pde_t * page_dir = (pde_t *)addr_alloc_page(&paddr_alloc, 1);
   107b5:	83 ec 08             	sub    $0x8,%esp
   107b8:	6a 01                	push   $0x1
   107ba:	68 00 b0 01 00       	push   $0x1b000
   107bf:	e8 8c fc ff ff       	call   10450 <addr_alloc_page>
   107c4:	83 c4 10             	add    $0x10,%esp
   107c7:	89 45 f0             	mov    %eax,-0x10(%ebp)
    if (page_dir == 0) {
   107ca:	83 7d f0 00          	cmpl   $0x0,-0x10(%ebp)
   107ce:	75 07                	jne    107d7 <memory_create_uvm+0x28>
        return 0;
   107d0:	b8 00 00 00 00       	mov    $0x0,%eax
   107d5:	eb 5b                	jmp    10832 <memory_create_uvm+0x83>
    }
    kernel_memset((void *)page_dir, 0, MEM_PAGE_SIZE);
   107d7:	83 ec 04             	sub    $0x4,%esp
   107da:	68 00 10 00 00       	push   $0x1000
   107df:	6a 00                	push   $0x0
   107e1:	ff 75 f0             	pushl  -0x10(%ebp)
   107e4:	e8 93 7c 00 00       	call   1847c <kernel_memset>
   107e9:	83 c4 10             	add    $0x10,%esp

    uint32_t user_pde_start = pde_index(MEMORY_TASK_BASE);
   107ec:	83 ec 0c             	sub    $0xc,%esp
   107ef:	68 00 00 00 80       	push   $0x80000000
   107f4:	e8 5a fb ff ff       	call   10353 <pde_index>
   107f9:	83 c4 10             	add    $0x10,%esp
   107fc:	89 45 ec             	mov    %eax,-0x14(%ebp)
    for (int i = 0; i < user_pde_start; i++) {
   107ff:	c7 45 f4 00 00 00 00 	movl   $0x0,-0xc(%ebp)
   10806:	eb 1f                	jmp    10827 <memory_create_uvm+0x78>
        page_dir[i].v = kernel_page_dir[i].v;
   10808:	8b 45 f4             	mov    -0xc(%ebp),%eax
   1080b:	8d 14 85 00 00 00 00 	lea    0x0(,%eax,4),%edx
   10812:	8b 45 f0             	mov    -0x10(%ebp),%eax
   10815:	01 c2                	add    %eax,%edx
   10817:	8b 45 f4             	mov    -0xc(%ebp),%eax
   1081a:	8b 04 85 00 c0 01 00 	mov    0x1c000(,%eax,4),%eax
   10821:	89 02                	mov    %eax,(%edx)
    for (int i = 0; i < user_pde_start; i++) {
   10823:	83 45 f4 01          	addl   $0x1,-0xc(%ebp)
   10827:	8b 45 f4             	mov    -0xc(%ebp),%eax
   1082a:	39 45 ec             	cmp    %eax,-0x14(%ebp)
   1082d:	77 d9                	ja     10808 <memory_create_uvm+0x59>
    }

    return (uint32_t)page_dir;
   1082f:	8b 45 f0             	mov    -0x10(%ebp),%eax
}
   10832:	c9                   	leave  
   10833:	c3                   	ret    

00010834 <memory_destroy_uvm>:

void memory_destroy_uvm (uint32_t page_dir) {
   10834:	55                   	push   %ebp
   10835:	89 e5                	mov    %esp,%ebp
   10837:	83 ec 28             	sub    $0x28,%esp
    uint32_t user_pde_start = pde_index(MEMORY_TASK_BASE);
   1083a:	68 00 00 00 80       	push   $0x80000000
   1083f:	e8 0f fb ff ff       	call   10353 <pde_index>
   10844:	83 c4 04             	add    $0x4,%esp
   10847:	89 45 e4             	mov    %eax,-0x1c(%ebp)
    pde_t * pde = (pde_t *)page_dir + user_pde_start;
   1084a:	8b 45 e4             	mov    -0x1c(%ebp),%eax
   1084d:	8d 14 85 00 00 00 00 	lea    0x0(,%eax,4),%edx
   10854:	8b 45 08             	mov    0x8(%ebp),%eax
   10857:	01 d0                	add    %edx,%eax
   10859:	89 45 f4             	mov    %eax,-0xc(%ebp)

    ASSERT(page_dir != 0);
   1085c:	83 7d 08 00          	cmpl   $0x0,0x8(%ebp)
   10860:	75 1c                	jne    1087e <memory_destroy_uvm+0x4a>
   10862:	68 74 8b 01 00       	push   $0x18b74
   10867:	68 80 8c 01 00       	push   $0x18c80
   1086c:	68 a4 00 00 00       	push   $0xa4
   10871:	68 34 8b 01 00       	push   $0x18b34
   10876:	e8 4e 7f 00 00       	call   187c9 <panic>
   1087b:	83 c4 10             	add    $0x10,%esp

    for (int i = user_pde_start; i < PDE_CNT; i++, pde++) {
   1087e:	8b 45 e4             	mov    -0x1c(%ebp),%eax
   10881:	89 45 f0             	mov    %eax,-0x10(%ebp)
   10884:	e9 95 00 00 00       	jmp    1091e <memory_destroy_uvm+0xea>
        if (!pde->present) {
   10889:	8b 45 f4             	mov    -0xc(%ebp),%eax
   1088c:	0f b6 00             	movzbl (%eax),%eax
   1088f:	83 e0 01             	and    $0x1,%eax
   10892:	84 c0                	test   %al,%al
   10894:	74 7f                	je     10915 <memory_destroy_uvm+0xe1>
            continue;
        }

        pte_t * pte = (pte_t *)pde_paddr(pde);
   10896:	83 ec 0c             	sub    $0xc,%esp
   10899:	ff 75 f4             	pushl  -0xc(%ebp)
   1089c:	e8 c6 fa ff ff       	call   10367 <pde_paddr>
   108a1:	83 c4 10             	add    $0x10,%esp
   108a4:	89 45 ec             	mov    %eax,-0x14(%ebp)
        for (int j = 0; j < PTE_CNT; j++, pte++) {
   108a7:	c7 45 e8 00 00 00 00 	movl   $0x0,-0x18(%ebp)
   108ae:	eb 39                	jmp    108e9 <memory_destroy_uvm+0xb5>
            if (!pte->present) {
   108b0:	8b 45 ec             	mov    -0x14(%ebp),%eax
   108b3:	0f b6 00             	movzbl (%eax),%eax
   108b6:	83 e0 01             	and    $0x1,%eax
   108b9:	84 c0                	test   %al,%al
   108bb:	74 23                	je     108e0 <memory_destroy_uvm+0xac>
                continue;
            }

            addr_free_page(&paddr_alloc, pte_paddr(pte), 1);
   108bd:	83 ec 0c             	sub    $0xc,%esp
   108c0:	ff 75 ec             	pushl  -0x14(%ebp)
   108c3:	e8 d6 fa ff ff       	call   1039e <pte_paddr>
   108c8:	83 c4 10             	add    $0x10,%esp
   108cb:	83 ec 04             	sub    $0x4,%esp
   108ce:	6a 01                	push   $0x1
   108d0:	50                   	push   %eax
   108d1:	68 00 b0 01 00       	push   $0x1b000
   108d6:	e8 dc fb ff ff       	call   104b7 <addr_free_page>
   108db:	83 c4 10             	add    $0x10,%esp
   108de:	eb 01                	jmp    108e1 <memory_destroy_uvm+0xad>
                continue;
   108e0:	90                   	nop
        for (int j = 0; j < PTE_CNT; j++, pte++) {
   108e1:	83 45 e8 01          	addl   $0x1,-0x18(%ebp)
   108e5:	83 45 ec 04          	addl   $0x4,-0x14(%ebp)
   108e9:	81 7d e8 ff 03 00 00 	cmpl   $0x3ff,-0x18(%ebp)
   108f0:	7e be                	jle    108b0 <memory_destroy_uvm+0x7c>
        }

        addr_free_page(&paddr_alloc, (uint32_t)pde_paddr(pde), 1);
   108f2:	83 ec 0c             	sub    $0xc,%esp
   108f5:	ff 75 f4             	pushl  -0xc(%ebp)
   108f8:	e8 6a fa ff ff       	call   10367 <pde_paddr>
   108fd:	83 c4 10             	add    $0x10,%esp
   10900:	83 ec 04             	sub    $0x4,%esp
   10903:	6a 01                	push   $0x1
   10905:	50                   	push   %eax
   10906:	68 00 b0 01 00       	push   $0x1b000
   1090b:	e8 a7 fb ff ff       	call   104b7 <addr_free_page>
   10910:	83 c4 10             	add    $0x10,%esp
   10913:	eb 01                	jmp    10916 <memory_destroy_uvm+0xe2>
            continue;
   10915:	90                   	nop
    for (int i = user_pde_start; i < PDE_CNT; i++, pde++) {
   10916:	83 45 f0 01          	addl   $0x1,-0x10(%ebp)
   1091a:	83 45 f4 04          	addl   $0x4,-0xc(%ebp)
   1091e:	81 7d f0 ff 03 00 00 	cmpl   $0x3ff,-0x10(%ebp)
   10925:	0f 8e 5e ff ff ff    	jle    10889 <memory_destroy_uvm+0x55>
    }

    addr_free_page(&paddr_alloc, page_dir, 1);
   1092b:	83 ec 04             	sub    $0x4,%esp
   1092e:	6a 01                	push   $0x1
   10930:	ff 75 08             	pushl  0x8(%ebp)
   10933:	68 00 b0 01 00       	push   $0x1b000
   10938:	e8 7a fb ff ff       	call   104b7 <addr_free_page>
   1093d:	83 c4 10             	add    $0x10,%esp
}
   10940:	90                   	nop
   10941:	c9                   	leave  
   10942:	c3                   	ret    

00010943 <memory_copy_uvm>:

uint32_t memory_copy_uvm (uint32_t page_dir) {
   10943:	55                   	push   %ebp
   10944:	89 e5                	mov    %esp,%ebp
   10946:	83 ec 38             	sub    $0x38,%esp
    uint32_t to_page_dir = memory_create_uvm();
   10949:	e8 61 fe ff ff       	call   107af <memory_create_uvm>
   1094e:	89 45 e4             	mov    %eax,-0x1c(%ebp)
    if (to_page_dir == 0) {
   10951:	83 7d e4 00          	cmpl   $0x0,-0x1c(%ebp)
   10955:	0f 84 1b 01 00 00    	je     10a76 <memory_copy_uvm+0x133>
        goto copy_uvm_failed;
    }

    uint32_t user_pde_start = pde_index(MEMORY_TASK_BASE);
   1095b:	83 ec 0c             	sub    $0xc,%esp
   1095e:	68 00 00 00 80       	push   $0x80000000
   10963:	e8 eb f9 ff ff       	call   10353 <pde_index>
   10968:	83 c4 10             	add    $0x10,%esp
   1096b:	89 45 e0             	mov    %eax,-0x20(%ebp)
    pde_t * pde = (pde_t *)page_dir + user_pde_start;
   1096e:	8b 45 e0             	mov    -0x20(%ebp),%eax
   10971:	8d 14 85 00 00 00 00 	lea    0x0(,%eax,4),%edx
   10978:	8b 45 08             	mov    0x8(%ebp),%eax
   1097b:	01 d0                	add    %edx,%eax
   1097d:	89 45 f4             	mov    %eax,-0xc(%ebp)

    for (int i = user_pde_start; i < PDE_CNT; i++, pde++) {
   10980:	8b 45 e0             	mov    -0x20(%ebp),%eax
   10983:	89 45 f0             	mov    %eax,-0x10(%ebp)
   10986:	e9 d9 00 00 00       	jmp    10a64 <memory_copy_uvm+0x121>
        if (!pde->present) {
   1098b:	8b 45 f4             	mov    -0xc(%ebp),%eax
   1098e:	0f b6 00             	movzbl (%eax),%eax
   10991:	83 e0 01             	and    $0x1,%eax
   10994:	84 c0                	test   %al,%al
   10996:	0f 84 bf 00 00 00    	je     10a5b <memory_copy_uvm+0x118>
            continue;
        }

        pte_t * pte = (pte_t *)pde_paddr(pde);
   1099c:	83 ec 0c             	sub    $0xc,%esp
   1099f:	ff 75 f4             	pushl  -0xc(%ebp)
   109a2:	e8 c0 f9 ff ff       	call   10367 <pde_paddr>
   109a7:	83 c4 10             	add    $0x10,%esp
   109aa:	89 45 ec             	mov    %eax,-0x14(%ebp)
        for (int j = 0; j < PTE_CNT; j++, pte++) {
   109ad:	c7 45 e8 00 00 00 00 	movl   $0x0,-0x18(%ebp)
   109b4:	e9 93 00 00 00       	jmp    10a4c <memory_copy_uvm+0x109>
            if (!pte->present) {
   109b9:	8b 45 ec             	mov    -0x14(%ebp),%eax
   109bc:	0f b6 00             	movzbl (%eax),%eax
   109bf:	83 e0 01             	and    $0x1,%eax
   109c2:	84 c0                	test   %al,%al
   109c4:	74 7d                	je     10a43 <memory_copy_uvm+0x100>
                continue;
            }

            uint32_t page = addr_alloc_page(&paddr_alloc, 1);
   109c6:	83 ec 08             	sub    $0x8,%esp
   109c9:	6a 01                	push   $0x1
   109cb:	68 00 b0 01 00       	push   $0x1b000
   109d0:	e8 7b fa ff ff       	call   10450 <addr_alloc_page>
   109d5:	83 c4 10             	add    $0x10,%esp
   109d8:	89 45 dc             	mov    %eax,-0x24(%ebp)
            if (page == 0) {
   109db:	83 7d dc 00          	cmpl   $0x0,-0x24(%ebp)
   109df:	0f 84 94 00 00 00    	je     10a79 <memory_copy_uvm+0x136>
                goto copy_uvm_failed;
            }

            uint32_t vaddr = (i << 22) | (j << 12);
   109e5:	8b 45 f0             	mov    -0x10(%ebp),%eax
   109e8:	c1 e0 16             	shl    $0x16,%eax
   109eb:	89 c2                	mov    %eax,%edx
   109ed:	8b 45 e8             	mov    -0x18(%ebp),%eax
   109f0:	c1 e0 0c             	shl    $0xc,%eax
   109f3:	09 d0                	or     %edx,%eax
   109f5:	89 45 d8             	mov    %eax,-0x28(%ebp)
            int err = memory_create_map((pde_t *)to_page_dir, vaddr, page, 1, get_pte_perm(pte));
   109f8:	83 ec 0c             	sub    $0xc,%esp
   109fb:	ff 75 ec             	pushl  -0x14(%ebp)
   109fe:	e8 c2 f9 ff ff       	call   103c5 <get_pte_perm>
   10a03:	83 c4 10             	add    $0x10,%esp
   10a06:	89 c2                	mov    %eax,%edx
   10a08:	8b 45 e4             	mov    -0x1c(%ebp),%eax
   10a0b:	83 ec 0c             	sub    $0xc,%esp
   10a0e:	52                   	push   %edx
   10a0f:	6a 01                	push   $0x1
   10a11:	ff 75 dc             	pushl  -0x24(%ebp)
   10a14:	ff 75 d8             	pushl  -0x28(%ebp)
   10a17:	50                   	push   %eax
   10a18:	e8 4e fc ff ff       	call   1066b <memory_create_map>
   10a1d:	83 c4 20             	add    $0x20,%esp
   10a20:	89 45 d4             	mov    %eax,-0x2c(%ebp)
            if (err < 0) {
   10a23:	83 7d d4 00          	cmpl   $0x0,-0x2c(%ebp)
   10a27:	78 53                	js     10a7c <memory_copy_uvm+0x139>
                goto copy_uvm_failed;
            }

            kernel_memcpy((void *)page, (void *)vaddr, MEM_PAGE_SIZE);
   10a29:	8b 55 d8             	mov    -0x28(%ebp),%edx
   10a2c:	8b 45 dc             	mov    -0x24(%ebp),%eax
   10a2f:	83 ec 04             	sub    $0x4,%esp
   10a32:	68 00 10 00 00       	push   $0x1000
   10a37:	52                   	push   %edx
   10a38:	50                   	push   %eax
   10a39:	e8 ef 79 00 00       	call   1842d <kernel_memcpy>
   10a3e:	83 c4 10             	add    $0x10,%esp
   10a41:	eb 01                	jmp    10a44 <memory_copy_uvm+0x101>
                continue;
   10a43:	90                   	nop
        for (int j = 0; j < PTE_CNT; j++, pte++) {
   10a44:	83 45 e8 01          	addl   $0x1,-0x18(%ebp)
   10a48:	83 45 ec 04          	addl   $0x4,-0x14(%ebp)
   10a4c:	81 7d e8 ff 03 00 00 	cmpl   $0x3ff,-0x18(%ebp)
   10a53:	0f 8e 60 ff ff ff    	jle    109b9 <memory_copy_uvm+0x76>
   10a59:	eb 01                	jmp    10a5c <memory_copy_uvm+0x119>
            continue;
   10a5b:	90                   	nop
    for (int i = user_pde_start; i < PDE_CNT; i++, pde++) {
   10a5c:	83 45 f0 01          	addl   $0x1,-0x10(%ebp)
   10a60:	83 45 f4 04          	addl   $0x4,-0xc(%ebp)
   10a64:	81 7d f0 ff 03 00 00 	cmpl   $0x3ff,-0x10(%ebp)
   10a6b:	0f 8e 1a ff ff ff    	jle    1098b <memory_copy_uvm+0x48>
        }
    }
    return to_page_dir;
   10a71:	8b 45 e4             	mov    -0x1c(%ebp),%eax
   10a74:	eb 20                	jmp    10a96 <memory_copy_uvm+0x153>
        goto copy_uvm_failed;
   10a76:	90                   	nop
   10a77:	eb 04                	jmp    10a7d <memory_copy_uvm+0x13a>
                goto copy_uvm_failed;
   10a79:	90                   	nop
   10a7a:	eb 01                	jmp    10a7d <memory_copy_uvm+0x13a>
                goto copy_uvm_failed;
   10a7c:	90                   	nop

copy_uvm_failed:
    if (to_page_dir) {
   10a7d:	83 7d e4 00          	cmpl   $0x0,-0x1c(%ebp)
   10a81:	74 0e                	je     10a91 <memory_copy_uvm+0x14e>
        memory_destroy_uvm(to_page_dir);
   10a83:	83 ec 0c             	sub    $0xc,%esp
   10a86:	ff 75 e4             	pushl  -0x1c(%ebp)
   10a89:	e8 a6 fd ff ff       	call   10834 <memory_destroy_uvm>
   10a8e:	83 c4 10             	add    $0x10,%esp
    }
    return -1;
   10a91:	b8 ff ff ff ff       	mov    $0xffffffff,%eax
}
   10a96:	c9                   	leave  
   10a97:	c3                   	ret    

00010a98 <memory_get_paddr>:


uint32_t memory_get_paddr (uint32_t page_dir, uint32_t vaddr) {
   10a98:	55                   	push   %ebp
   10a99:	89 e5                	mov    %esp,%ebp
   10a9b:	83 ec 18             	sub    $0x18,%esp
    pte_t * pte = find_pte((pde_t *)page_dir, vaddr, 0);
   10a9e:	8b 45 08             	mov    0x8(%ebp),%eax
   10aa1:	83 ec 04             	sub    $0x4,%esp
   10aa4:	6a 00                	push   $0x0
   10aa6:	ff 75 0c             	pushl  0xc(%ebp)
   10aa9:	50                   	push   %eax
   10aaa:	e8 0c fb ff ff       	call   105bb <find_pte>
   10aaf:	83 c4 10             	add    $0x10,%esp
   10ab2:	89 45 f4             	mov    %eax,-0xc(%ebp)
    if (pte == (pte_t *)0) {
   10ab5:	83 7d f4 00          	cmpl   $0x0,-0xc(%ebp)
   10ab9:	75 07                	jne    10ac2 <memory_get_paddr+0x2a>
        return 0;
   10abb:	b8 00 00 00 00       	mov    $0x0,%eax
   10ac0:	eb 1a                	jmp    10adc <memory_get_paddr+0x44>
    }

    return pte_paddr(pte) + (vaddr & (MEM_PAGE_SIZE - 1));
   10ac2:	83 ec 0c             	sub    $0xc,%esp
   10ac5:	ff 75 f4             	pushl  -0xc(%ebp)
   10ac8:	e8 d1 f8 ff ff       	call   1039e <pte_paddr>
   10acd:	83 c4 10             	add    $0x10,%esp
   10ad0:	89 c2                	mov    %eax,%edx
   10ad2:	8b 45 0c             	mov    0xc(%ebp),%eax
   10ad5:	25 ff 0f 00 00       	and    $0xfff,%eax
   10ada:	01 d0                	add    %edx,%eax
}
   10adc:	c9                   	leave  
   10add:	c3                   	ret    

00010ade <memory_copy_uvm_data>:


int memory_copy_uvm_data(uint32_t to, uint32_t page_dir, uint32_t from, uint32_t size) {
   10ade:	55                   	push   %ebp
   10adf:	89 e5                	mov    %esp,%ebp
   10ae1:	83 ec 18             	sub    $0x18,%esp
    char *buf, *pa0;

    while(size > 0){
   10ae4:	eb 6e                	jmp    10b54 <memory_copy_uvm_data+0x76>
        uint32_t to_paddr = memory_get_paddr(page_dir, to);
   10ae6:	83 ec 08             	sub    $0x8,%esp
   10ae9:	ff 75 08             	pushl  0x8(%ebp)
   10aec:	ff 75 0c             	pushl  0xc(%ebp)
   10aef:	e8 a4 ff ff ff       	call   10a98 <memory_get_paddr>
   10af4:	83 c4 10             	add    $0x10,%esp
   10af7:	89 45 f0             	mov    %eax,-0x10(%ebp)
        if (to_paddr == 0) {
   10afa:	83 7d f0 00          	cmpl   $0x0,-0x10(%ebp)
   10afe:	75 07                	jne    10b07 <memory_copy_uvm_data+0x29>
            return -1;
   10b00:	b8 ff ff ff ff       	mov    $0xffffffff,%eax
   10b05:	eb 58                	jmp    10b5f <memory_copy_uvm_data+0x81>
        }

        uint32_t offset_in_page = to_paddr & (MEM_PAGE_SIZE - 1);
   10b07:	8b 45 f0             	mov    -0x10(%ebp),%eax
   10b0a:	25 ff 0f 00 00       	and    $0xfff,%eax
   10b0f:	89 45 ec             	mov    %eax,-0x14(%ebp)
        uint32_t curr_size = MEM_PAGE_SIZE - offset_in_page;
   10b12:	b8 00 10 00 00       	mov    $0x1000,%eax
   10b17:	2b 45 ec             	sub    -0x14(%ebp),%eax
   10b1a:	89 45 f4             	mov    %eax,-0xc(%ebp)
        if (curr_size > size) {
   10b1d:	8b 45 f4             	mov    -0xc(%ebp),%eax
   10b20:	3b 45 14             	cmp    0x14(%ebp),%eax
   10b23:	76 06                	jbe    10b2b <memory_copy_uvm_data+0x4d>
            curr_size = size;       
   10b25:	8b 45 14             	mov    0x14(%ebp),%eax
   10b28:	89 45 f4             	mov    %eax,-0xc(%ebp)
        }

        kernel_memcpy((void *)to_paddr, (void *)from, curr_size);
   10b2b:	8b 4d f4             	mov    -0xc(%ebp),%ecx
   10b2e:	8b 55 10             	mov    0x10(%ebp),%edx
   10b31:	8b 45 f0             	mov    -0x10(%ebp),%eax
   10b34:	83 ec 04             	sub    $0x4,%esp
   10b37:	51                   	push   %ecx
   10b38:	52                   	push   %edx
   10b39:	50                   	push   %eax
   10b3a:	e8 ee 78 00 00       	call   1842d <kernel_memcpy>
   10b3f:	83 c4 10             	add    $0x10,%esp

        size -= curr_size;
   10b42:	8b 45 f4             	mov    -0xc(%ebp),%eax
   10b45:	29 45 14             	sub    %eax,0x14(%ebp)
        to += curr_size;
   10b48:	8b 45 f4             	mov    -0xc(%ebp),%eax
   10b4b:	01 45 08             	add    %eax,0x8(%ebp)
        from += curr_size;
   10b4e:	8b 45 f4             	mov    -0xc(%ebp),%eax
   10b51:	01 45 10             	add    %eax,0x10(%ebp)
    while(size > 0){
   10b54:	83 7d 14 00          	cmpl   $0x0,0x14(%ebp)
   10b58:	75 8c                	jne    10ae6 <memory_copy_uvm_data+0x8>
  }

  return 0;
   10b5a:	b8 00 00 00 00       	mov    $0x0,%eax
}
   10b5f:	c9                   	leave  
   10b60:	c3                   	ret    

00010b61 <memory_alloc_for_page_dir>:

uint32_t memory_alloc_for_page_dir (uint32_t page_dir, uint32_t vaddr, uint32_t size, int perm) {
   10b61:	55                   	push   %ebp
   10b62:	89 e5                	mov    %esp,%ebp
   10b64:	83 ec 28             	sub    $0x28,%esp
    uint32_t curr_vaddr = vaddr;
   10b67:	8b 45 0c             	mov    0xc(%ebp),%eax
   10b6a:	89 45 f4             	mov    %eax,-0xc(%ebp)
    int page_count = up2(size, MEM_PAGE_SIZE) / MEM_PAGE_SIZE;
   10b6d:	68 00 10 00 00       	push   $0x1000
   10b72:	ff 75 10             	pushl  0x10(%ebp)
   10b75:	e8 a9 f7 ff ff       	call   10323 <up2>
   10b7a:	83 c4 08             	add    $0x8,%esp
   10b7d:	c1 e8 0c             	shr    $0xc,%eax
   10b80:	89 45 ec             	mov    %eax,-0x14(%ebp)
    vaddr = down2(vaddr, MEM_PAGE_SIZE);
   10b83:	68 00 10 00 00       	push   $0x1000
   10b88:	ff 75 0c             	pushl  0xc(%ebp)
   10b8b:	e8 aa f7 ff ff       	call   1033a <down2>
   10b90:	83 c4 08             	add    $0x8,%esp
   10b93:	89 45 0c             	mov    %eax,0xc(%ebp)

    for (int i = 0; i < page_count; i++) {
   10b96:	c7 45 f0 00 00 00 00 	movl   $0x0,-0x10(%ebp)
   10b9d:	e9 95 00 00 00       	jmp    10c37 <memory_alloc_for_page_dir+0xd6>
        uint32_t paddr = addr_alloc_page(&paddr_alloc, 1);
   10ba2:	83 ec 08             	sub    $0x8,%esp
   10ba5:	6a 01                	push   $0x1
   10ba7:	68 00 b0 01 00       	push   $0x1b000
   10bac:	e8 9f f8 ff ff       	call   10450 <addr_alloc_page>
   10bb1:	83 c4 10             	add    $0x10,%esp
   10bb4:	89 45 e8             	mov    %eax,-0x18(%ebp)
        if (paddr == 0) {
   10bb7:	83 7d e8 00          	cmpl   $0x0,-0x18(%ebp)
   10bbb:	75 17                	jne    10bd4 <memory_alloc_for_page_dir+0x73>
            log_printf("mem alloc failed. no memory");
   10bbd:	83 ec 0c             	sub    $0xc,%esp
   10bc0:	68 82 8b 01 00       	push   $0x18b82
   10bc5:	e8 5c 7e 00 00       	call   18a26 <log_printf>
   10bca:	83 c4 10             	add    $0x10,%esp
            return 0;
   10bcd:	b8 00 00 00 00       	mov    $0x0,%eax
   10bd2:	eb 74                	jmp    10c48 <memory_alloc_for_page_dir+0xe7>
        }

        int err = memory_create_map((pde_t *)page_dir, curr_vaddr, paddr, 1, perm);
   10bd4:	8b 55 14             	mov    0x14(%ebp),%edx
   10bd7:	8b 45 08             	mov    0x8(%ebp),%eax
   10bda:	83 ec 0c             	sub    $0xc,%esp
   10bdd:	52                   	push   %edx
   10bde:	6a 01                	push   $0x1
   10be0:	ff 75 e8             	pushl  -0x18(%ebp)
   10be3:	ff 75 f4             	pushl  -0xc(%ebp)
   10be6:	50                   	push   %eax
   10be7:	e8 7f fa ff ff       	call   1066b <memory_create_map>
   10bec:	83 c4 20             	add    $0x20,%esp
   10bef:	89 45 e4             	mov    %eax,-0x1c(%ebp)
        if (err < 0) {
   10bf2:	83 7d e4 00          	cmpl   $0x0,-0x1c(%ebp)
   10bf6:	79 34                	jns    10c2c <memory_alloc_for_page_dir+0xcb>
            log_printf("create memory map failed. err = %d", err);
   10bf8:	83 ec 08             	sub    $0x8,%esp
   10bfb:	ff 75 e4             	pushl  -0x1c(%ebp)
   10bfe:	68 a0 8b 01 00       	push   $0x18ba0
   10c03:	e8 1e 7e 00 00       	call   18a26 <log_printf>
   10c08:	83 c4 10             	add    $0x10,%esp
            addr_free_page(&paddr_alloc, vaddr, i + 1);
   10c0b:	8b 45 f0             	mov    -0x10(%ebp),%eax
   10c0e:	83 c0 01             	add    $0x1,%eax
   10c11:	83 ec 04             	sub    $0x4,%esp
   10c14:	50                   	push   %eax
   10c15:	ff 75 0c             	pushl  0xc(%ebp)
   10c18:	68 00 b0 01 00       	push   $0x1b000
   10c1d:	e8 95 f8 ff ff       	call   104b7 <addr_free_page>
   10c22:	83 c4 10             	add    $0x10,%esp
            return -1;
   10c25:	b8 ff ff ff ff       	mov    $0xffffffff,%eax
   10c2a:	eb 1c                	jmp    10c48 <memory_alloc_for_page_dir+0xe7>
        }

        curr_vaddr += MEM_PAGE_SIZE;
   10c2c:	81 45 f4 00 10 00 00 	addl   $0x1000,-0xc(%ebp)
    for (int i = 0; i < page_count; i++) {
   10c33:	83 45 f0 01          	addl   $0x1,-0x10(%ebp)
   10c37:	8b 45 f0             	mov    -0x10(%ebp),%eax
   10c3a:	3b 45 ec             	cmp    -0x14(%ebp),%eax
   10c3d:	0f 8c 5f ff ff ff    	jl     10ba2 <memory_alloc_for_page_dir+0x41>
    }

    return 0;
   10c43:	b8 00 00 00 00       	mov    $0x0,%eax
}
   10c48:	c9                   	leave  
   10c49:	c3                   	ret    

00010c4a <memory_alloc_page_for>:

int memory_alloc_page_for (uint32_t addr, uint32_t size, int perm) {
   10c4a:	55                   	push   %ebp
   10c4b:	89 e5                	mov    %esp,%ebp
   10c4d:	83 ec 08             	sub    $0x8,%esp
    return memory_alloc_for_page_dir(task_current()->tss.cr3, addr, size, perm);
   10c50:	e8 b4 0a 00 00       	call   11709 <task_current>
   10c55:	8b 80 60 02 00 00    	mov    0x260(%eax),%eax
   10c5b:	ff 75 10             	pushl  0x10(%ebp)
   10c5e:	ff 75 0c             	pushl  0xc(%ebp)
   10c61:	ff 75 08             	pushl  0x8(%ebp)
   10c64:	50                   	push   %eax
   10c65:	e8 f7 fe ff ff       	call   10b61 <memory_alloc_for_page_dir>
   10c6a:	83 c4 10             	add    $0x10,%esp
}
   10c6d:	c9                   	leave  
   10c6e:	c3                   	ret    

00010c6f <memory_alloc_page>:



uint32_t memory_alloc_page (void) {
   10c6f:	55                   	push   %ebp
   10c70:	89 e5                	mov    %esp,%ebp
   10c72:	83 ec 08             	sub    $0x8,%esp
    return addr_alloc_page(&paddr_alloc, 1);
   10c75:	83 ec 08             	sub    $0x8,%esp
   10c78:	6a 01                	push   $0x1
   10c7a:	68 00 b0 01 00       	push   $0x1b000
   10c7f:	e8 cc f7 ff ff       	call   10450 <addr_alloc_page>
   10c84:	83 c4 10             	add    $0x10,%esp
}
   10c87:	c9                   	leave  
   10c88:	c3                   	ret    

00010c89 <memory_free_page>:


void memory_free_page (uint32_t addr) {
   10c89:	55                   	push   %ebp
   10c8a:	89 e5                	mov    %esp,%ebp
   10c8c:	83 ec 18             	sub    $0x18,%esp
    if (addr < MEMORY_TASK_BASE) {
   10c8f:	8b 45 08             	mov    0x8(%ebp),%eax
   10c92:	85 c0                	test   %eax,%eax
   10c94:	78 17                	js     10cad <memory_free_page+0x24>
        addr_free_page(&paddr_alloc, addr, 1);
   10c96:	83 ec 04             	sub    $0x4,%esp
   10c99:	6a 01                	push   $0x1
   10c9b:	ff 75 08             	pushl  0x8(%ebp)
   10c9e:	68 00 b0 01 00       	push   $0x1b000
   10ca3:	e8 0f f8 ff ff       	call   104b7 <addr_free_page>
   10ca8:	83 c4 10             	add    $0x10,%esp

        addr_free_page(&paddr_alloc, pte_paddr(pte), 1);

        pte->v = 0;
    }
}
   10cab:	eb 72                	jmp    10d1f <memory_free_page+0x96>
        pte_t * pte = find_pte(current_page_dir(), addr, 0);
   10cad:	e8 33 f7 ff ff       	call   103e5 <current_page_dir>
   10cb2:	83 ec 04             	sub    $0x4,%esp
   10cb5:	6a 00                	push   $0x0
   10cb7:	ff 75 08             	pushl  0x8(%ebp)
   10cba:	50                   	push   %eax
   10cbb:	e8 fb f8 ff ff       	call   105bb <find_pte>
   10cc0:	83 c4 10             	add    $0x10,%esp
   10cc3:	89 45 f4             	mov    %eax,-0xc(%ebp)
        ASSERT((pte == (pte_t *)0) && pte->present);
   10cc6:	83 7d f4 00          	cmpl   $0x0,-0xc(%ebp)
   10cca:	75 0d                	jne    10cd9 <memory_free_page+0x50>
   10ccc:	8b 45 f4             	mov    -0xc(%ebp),%eax
   10ccf:	0f b6 00             	movzbl (%eax),%eax
   10cd2:	83 e0 01             	and    $0x1,%eax
   10cd5:	84 c0                	test   %al,%al
   10cd7:	75 1c                	jne    10cf5 <memory_free_page+0x6c>
   10cd9:	68 c4 8b 01 00       	push   $0x18bc4
   10cde:	68 94 8c 01 00       	push   $0x18c94
   10ce3:	68 32 01 00 00       	push   $0x132
   10ce8:	68 34 8b 01 00       	push   $0x18b34
   10ced:	e8 d7 7a 00 00       	call   187c9 <panic>
   10cf2:	83 c4 10             	add    $0x10,%esp
        addr_free_page(&paddr_alloc, pte_paddr(pte), 1);
   10cf5:	83 ec 0c             	sub    $0xc,%esp
   10cf8:	ff 75 f4             	pushl  -0xc(%ebp)
   10cfb:	e8 9e f6 ff ff       	call   1039e <pte_paddr>
   10d00:	83 c4 10             	add    $0x10,%esp
   10d03:	83 ec 04             	sub    $0x4,%esp
   10d06:	6a 01                	push   $0x1
   10d08:	50                   	push   %eax
   10d09:	68 00 b0 01 00       	push   $0x1b000
   10d0e:	e8 a4 f7 ff ff       	call   104b7 <addr_free_page>
   10d13:	83 c4 10             	add    $0x10,%esp
        pte->v = 0;
   10d16:	8b 45 f4             	mov    -0xc(%ebp),%eax
   10d19:	c7 00 00 00 00 00    	movl   $0x0,(%eax)
}
   10d1f:	90                   	nop
   10d20:	c9                   	leave  
   10d21:	c3                   	ret    

00010d22 <memory_init>:


void memory_init (boot_info_t * boot_info) {
   10d22:	55                   	push   %ebp
   10d23:	89 e5                	mov    %esp,%ebp
   10d25:	83 ec 18             	sub    $0x18,%esp
    extern uint8_t * mem_free_start;

    log_printf("mem init.");
   10d28:	83 ec 0c             	sub    $0xc,%esp
   10d2b:	68 e8 8b 01 00       	push   $0x18be8
   10d30:	e8 f1 7c 00 00       	call   18a26 <log_printf>
   10d35:	83 c4 10             	add    $0x10,%esp
    show_mem_info(boot_info);
   10d38:	83 ec 0c             	sub    $0xc,%esp
   10d3b:	ff 75 08             	pushl  0x8(%ebp)
   10d3e:	e8 d6 f7 ff ff       	call   10519 <show_mem_info>
   10d43:	83 c4 10             	add    $0x10,%esp

    uint8_t * mem_free = (uint8_t *)&mem_free_start;  
   10d46:	c7 45 f4 47 04 06 00 	movl   $0x60447,-0xc(%ebp)

    uint32_t mem_up1MB_free = total_mem_size(boot_info) - MEM_EXT_START;
   10d4d:	83 ec 0c             	sub    $0xc,%esp
   10d50:	ff 75 08             	pushl  0x8(%ebp)
   10d53:	e8 27 f8 ff ff       	call   1057f <total_mem_size>
   10d58:	83 c4 10             	add    $0x10,%esp
   10d5b:	2d 00 00 10 00       	sub    $0x100000,%eax
   10d60:	89 45 f0             	mov    %eax,-0x10(%ebp)
    mem_up1MB_free = down2(mem_up1MB_free, MEM_PAGE_SIZE);  
   10d63:	83 ec 08             	sub    $0x8,%esp
   10d66:	68 00 10 00 00       	push   $0x1000
   10d6b:	ff 75 f0             	pushl  -0x10(%ebp)
   10d6e:	e8 c7 f5 ff ff       	call   1033a <down2>
   10d73:	83 c4 10             	add    $0x10,%esp
   10d76:	89 45 f0             	mov    %eax,-0x10(%ebp)
    log_printf("Free memory: 0x%x, size: 0x%x", MEM_EXT_START, mem_up1MB_free);
   10d79:	83 ec 04             	sub    $0x4,%esp
   10d7c:	ff 75 f0             	pushl  -0x10(%ebp)
   10d7f:	68 00 00 10 00       	push   $0x100000
   10d84:	68 f2 8b 01 00       	push   $0x18bf2
   10d89:	e8 98 7c 00 00       	call   18a26 <log_printf>
   10d8e:	83 c4 10             	add    $0x10,%esp

    addr_alloc_init(&paddr_alloc, mem_free, MEM_EXT_START, mem_up1MB_free, MEM_PAGE_SIZE);
   10d91:	83 ec 0c             	sub    $0xc,%esp
   10d94:	68 00 10 00 00       	push   $0x1000
   10d99:	ff 75 f0             	pushl  -0x10(%ebp)
   10d9c:	68 00 00 10 00       	push   $0x100000
   10da1:	ff 75 f4             	pushl  -0xc(%ebp)
   10da4:	68 00 b0 01 00       	push   $0x1b000
   10da9:	e8 4a f6 ff ff       	call   103f8 <addr_alloc_init>
   10dae:	83 c4 20             	add    $0x20,%esp
    mem_free += bitmap_byte_count(paddr_alloc.size / MEM_PAGE_SIZE);
   10db1:	a1 24 b0 01 00       	mov    0x1b024,%eax
   10db6:	c1 e8 0c             	shr    $0xc,%eax
   10db9:	83 ec 0c             	sub    $0xc,%esp
   10dbc:	50                   	push   %eax
   10dbd:	e8 3c 72 00 00       	call   17ffe <bitmap_byte_count>
   10dc2:	83 c4 10             	add    $0x10,%esp
   10dc5:	01 45 f4             	add    %eax,-0xc(%ebp)

    ASSERT(mem_free < (uint8_t *)MEM_EBDA_START);
   10dc8:	81 7d f4 ff ff 07 00 	cmpl   $0x7ffff,-0xc(%ebp)
   10dcf:	76 1c                	jbe    10ded <memory_init+0xcb>
   10dd1:	68 10 8c 01 00       	push   $0x18c10
   10dd6:	68 a8 8c 01 00       	push   $0x18ca8
   10ddb:	68 4a 01 00 00       	push   $0x14a
   10de0:	68 34 8b 01 00       	push   $0x18b34
   10de5:	e8 df 79 00 00       	call   187c9 <panic>
   10dea:	83 c4 10             	add    $0x10,%esp

    create_kernel_table();
   10ded:	e8 02 f9 ff ff       	call   106f4 <create_kernel_table>

    mmu_set_page_dir((uint32_t)kernel_page_dir);
   10df2:	b8 00 c0 01 00       	mov    $0x1c000,%eax
   10df7:	83 ec 0c             	sub    $0xc,%esp
   10dfa:	50                   	push   %eax
   10dfb:	e8 d4 f5 ff ff       	call   103d4 <mmu_set_page_dir>
   10e00:	83 c4 10             	add    $0x10,%esp
}
   10e03:	90                   	nop
   10e04:	c9                   	leave  
   10e05:	c3                   	ret    

00010e06 <sys_sbrk>:

char * sys_sbrk(int incr) {
   10e06:	55                   	push   %ebp
   10e07:	89 e5                	mov    %esp,%ebp
   10e09:	83 ec 38             	sub    $0x38,%esp
    task_t * task = task_current();
   10e0c:	e8 f8 08 00 00       	call   11709 <task_current>
   10e11:	89 45 f0             	mov    %eax,-0x10(%ebp)
    char * pre_heap_end = (char * )task->heap_end;
   10e14:	8b 45 f0             	mov    -0x10(%ebp),%eax
   10e17:	8b 40 30             	mov    0x30(%eax),%eax
   10e1a:	89 45 ec             	mov    %eax,-0x14(%ebp)
    int pre_incr = incr;
   10e1d:	8b 45 08             	mov    0x8(%ebp),%eax
   10e20:	89 45 e8             	mov    %eax,-0x18(%ebp)

    ASSERT(incr >= 0);
   10e23:	83 7d 08 00          	cmpl   $0x0,0x8(%ebp)
   10e27:	79 1c                	jns    10e45 <sys_sbrk+0x3f>
   10e29:	68 35 8c 01 00       	push   $0x18c35
   10e2e:	68 b4 8c 01 00       	push   $0x18cb4
   10e33:	68 56 01 00 00       	push   $0x156
   10e38:	68 34 8b 01 00       	push   $0x18b34
   10e3d:	e8 87 79 00 00       	call   187c9 <panic>
   10e42:	83 c4 10             	add    $0x10,%esp

    if (incr == 0) {
   10e45:	83 7d 08 00          	cmpl   $0x0,0x8(%ebp)
   10e49:	75 1b                	jne    10e66 <sys_sbrk+0x60>
        log_printf("sbrk(0): end = 0x%x", pre_heap_end);
   10e4b:	83 ec 08             	sub    $0x8,%esp
   10e4e:	ff 75 ec             	pushl  -0x14(%ebp)
   10e51:	68 3f 8c 01 00       	push   $0x18c3f
   10e56:	e8 cb 7b 00 00       	call   18a26 <log_printf>
   10e5b:	83 c4 10             	add    $0x10,%esp
        return pre_heap_end;
   10e5e:	8b 45 ec             	mov    -0x14(%ebp),%eax
   10e61:	e9 aa 00 00 00       	jmp    10f10 <sys_sbrk+0x10a>
    } 
    
    uint32_t start = task->heap_end;
   10e66:	8b 45 f0             	mov    -0x10(%ebp),%eax
   10e69:	8b 40 30             	mov    0x30(%eax),%eax
   10e6c:	89 45 f4             	mov    %eax,-0xc(%ebp)
    uint32_t end = start + incr;
   10e6f:	8b 55 08             	mov    0x8(%ebp),%edx
   10e72:	8b 45 f4             	mov    -0xc(%ebp),%eax
   10e75:	01 d0                	add    %edx,%eax
   10e77:	89 45 e4             	mov    %eax,-0x1c(%ebp)

    int start_offset = start % MEM_PAGE_SIZE;
   10e7a:	8b 45 f4             	mov    -0xc(%ebp),%eax
   10e7d:	25 ff 0f 00 00       	and    $0xfff,%eax
   10e82:	89 45 e0             	mov    %eax,-0x20(%ebp)
    if (start_offset) {
   10e85:	83 7d e0 00          	cmpl   $0x0,-0x20(%ebp)
   10e89:	74 37                	je     10ec2 <sys_sbrk+0xbc>
        if (start_offset + incr <= MEM_PAGE_SIZE) {
   10e8b:	8b 55 e0             	mov    -0x20(%ebp),%edx
   10e8e:	8b 45 08             	mov    0x8(%ebp),%eax
   10e91:	01 d0                	add    %edx,%eax
   10e93:	3d 00 10 00 00       	cmp    $0x1000,%eax
   10e98:	7f 0e                	jg     10ea8 <sys_sbrk+0xa2>
            task->heap_end = end;
   10e9a:	8b 45 f0             	mov    -0x10(%ebp),%eax
   10e9d:	8b 55 e4             	mov    -0x1c(%ebp),%edx
   10ea0:	89 50 30             	mov    %edx,0x30(%eax)
            return pre_heap_end;
   10ea3:	8b 45 ec             	mov    -0x14(%ebp),%eax
   10ea6:	eb 68                	jmp    10f10 <sys_sbrk+0x10a>
        } else {
            uint32_t curr_size = MEM_PAGE_SIZE - start_offset;
   10ea8:	b8 00 10 00 00       	mov    $0x1000,%eax
   10ead:	2b 45 e0             	sub    -0x20(%ebp),%eax
   10eb0:	89 45 dc             	mov    %eax,-0x24(%ebp)
            start += curr_size;
   10eb3:	8b 45 dc             	mov    -0x24(%ebp),%eax
   10eb6:	01 45 f4             	add    %eax,-0xc(%ebp)
            incr -= curr_size;
   10eb9:	8b 45 08             	mov    0x8(%ebp),%eax
   10ebc:	2b 45 dc             	sub    -0x24(%ebp),%eax
   10ebf:	89 45 08             	mov    %eax,0x8(%ebp)
        }
    }

    if (incr) {
   10ec2:	83 7d 08 00          	cmpl   $0x0,0x8(%ebp)
   10ec6:	74 3c                	je     10f04 <sys_sbrk+0xfe>
        uint32_t curr_size = end - start;
   10ec8:	8b 45 e4             	mov    -0x1c(%ebp),%eax
   10ecb:	2b 45 f4             	sub    -0xc(%ebp),%eax
   10ece:	89 45 d8             	mov    %eax,-0x28(%ebp)
        int err = memory_alloc_page_for(start, curr_size, PTE_P | PTE_U | PTE_W);
   10ed1:	83 ec 04             	sub    $0x4,%esp
   10ed4:	6a 07                	push   $0x7
   10ed6:	ff 75 d8             	pushl  -0x28(%ebp)
   10ed9:	ff 75 f4             	pushl  -0xc(%ebp)
   10edc:	e8 69 fd ff ff       	call   10c4a <memory_alloc_page_for>
   10ee1:	83 c4 10             	add    $0x10,%esp
   10ee4:	89 45 d4             	mov    %eax,-0x2c(%ebp)
        if (err < 0) {
   10ee7:	83 7d d4 00          	cmpl   $0x0,-0x2c(%ebp)
   10eeb:	79 17                	jns    10f04 <sys_sbrk+0xfe>
            log_printf("sbrk: alloc mem failed.");
   10eed:	83 ec 0c             	sub    $0xc,%esp
   10ef0:	68 53 8c 01 00       	push   $0x18c53
   10ef5:	e8 2c 7b 00 00       	call   18a26 <log_printf>
   10efa:	83 c4 10             	add    $0x10,%esp
            return (char *)-1;
   10efd:	b8 ff ff ff ff       	mov    $0xffffffff,%eax
   10f02:	eb 0c                	jmp    10f10 <sys_sbrk+0x10a>
        }
    }

    //log_printf("sbrk(%d): end = 0x%x", pre_incr, end);
    task->heap_end = end;
   10f04:	8b 45 f0             	mov    -0x10(%ebp),%eax
   10f07:	8b 55 e4             	mov    -0x1c(%ebp),%edx
   10f0a:	89 50 30             	mov    %edx,0x30(%eax)
    return (char * )pre_heap_end;        
   10f0d:	8b 45 ec             	mov    -0x14(%ebp),%eax
}
   10f10:	c9                   	leave  
   10f11:	c3                   	ret    

00010f12 <sys_print_msg>:
#include "core/memory.h"
#include "fs/fs.h"

typedef int (*syscall_handler_t)(uint32_t arg0, uint32_t arg1, uint32_t arg2, uint32_t arg3);

int sys_print_msg (char * fmt, int arg) {
   10f12:	55                   	push   %ebp
   10f13:	89 e5                	mov    %esp,%ebp
   10f15:	83 ec 08             	sub    $0x8,%esp
	log_printf(fmt, arg);
   10f18:	83 ec 08             	sub    $0x8,%esp
   10f1b:	ff 75 0c             	pushl  0xc(%ebp)
   10f1e:	ff 75 08             	pushl  0x8(%ebp)
   10f21:	e8 00 7b 00 00       	call   18a26 <log_printf>
   10f26:	83 c4 10             	add    $0x10,%esp
}
   10f29:	90                   	nop
   10f2a:	c9                   	leave  
   10f2b:	c3                   	ret    

00010f2c <do_handler_syscall>:
	[SYS_closedir] = (syscall_handler_t)sys_closedir,
	[SYS_unlink] = (syscall_handler_t)sys_unlink,
};


void do_handler_syscall (syscall_frame_t * frame) {
   10f2c:	55                   	push   %ebp
   10f2d:	89 e5                	mov    %esp,%ebp
   10f2f:	53                   	push   %ebx
   10f30:	83 ec 14             	sub    $0x14,%esp
    if (frame->func_id < sizeof(sys_table) / sizeof(sys_table[0])) {
   10f33:	8b 45 08             	mov    0x8(%ebp),%eax
   10f36:	8b 40 3c             	mov    0x3c(%eax),%eax
   10f39:	83 f8 64             	cmp    $0x64,%eax
   10f3c:	77 4e                	ja     10f8c <do_handler_syscall+0x60>
		syscall_handler_t handler = sys_table[frame->func_id];
   10f3e:	8b 45 08             	mov    0x8(%ebp),%eax
   10f41:	8b 40 3c             	mov    0x3c(%eax),%eax
   10f44:	8b 04 85 c0 8c 01 00 	mov    0x18cc0(,%eax,4),%eax
   10f4b:	89 45 f4             	mov    %eax,-0xc(%ebp)
		if (handler) {
   10f4e:	83 7d f4 00          	cmpl   $0x0,-0xc(%ebp)
   10f52:	74 38                	je     10f8c <do_handler_syscall+0x60>
			int ret = handler(frame->arg0, frame->arg1, frame->arg2, frame->arg3);
   10f54:	8b 45 08             	mov    0x8(%ebp),%eax
   10f57:	8b 40 4c             	mov    0x4c(%eax),%eax
   10f5a:	89 c3                	mov    %eax,%ebx
   10f5c:	8b 45 08             	mov    0x8(%ebp),%eax
   10f5f:	8b 40 48             	mov    0x48(%eax),%eax
   10f62:	89 c1                	mov    %eax,%ecx
   10f64:	8b 45 08             	mov    0x8(%ebp),%eax
   10f67:	8b 40 44             	mov    0x44(%eax),%eax
   10f6a:	89 c2                	mov    %eax,%edx
   10f6c:	8b 45 08             	mov    0x8(%ebp),%eax
   10f6f:	8b 40 40             	mov    0x40(%eax),%eax
   10f72:	53                   	push   %ebx
   10f73:	51                   	push   %ecx
   10f74:	52                   	push   %edx
   10f75:	50                   	push   %eax
   10f76:	8b 45 f4             	mov    -0xc(%ebp),%eax
   10f79:	ff d0                	call   *%eax
   10f7b:	83 c4 10             	add    $0x10,%esp
   10f7e:	89 45 f0             	mov    %eax,-0x10(%ebp)
			frame->eax = ret;  
   10f81:	8b 45 08             	mov    0x8(%ebp),%eax
   10f84:	8b 55 f0             	mov    -0x10(%ebp),%edx
   10f87:	89 50 30             	mov    %edx,0x30(%eax)
            return;
   10f8a:	eb 30                	jmp    10fbc <do_handler_syscall+0x90>
		}
	}

	task_t * task = task_current();
   10f8c:	e8 78 07 00 00       	call   11709 <task_current>
   10f91:	89 45 ec             	mov    %eax,-0x14(%ebp)
	log_printf("task: %s, Unknown syscall: %d", task->name,  frame->func_id);
   10f94:	8b 45 08             	mov    0x8(%ebp),%eax
   10f97:	8b 40 3c             	mov    0x3c(%eax),%eax
   10f9a:	8b 55 ec             	mov    -0x14(%ebp),%edx
   10f9d:	83 c2 04             	add    $0x4,%edx
   10fa0:	83 ec 04             	sub    $0x4,%esp
   10fa3:	50                   	push   %eax
   10fa4:	52                   	push   %edx
   10fa5:	68 54 8e 01 00       	push   $0x18e54
   10faa:	e8 77 7a 00 00       	call   18a26 <log_printf>
   10faf:	83 c4 10             	add    $0x10,%esp
    frame->eax = -1;  
   10fb2:	8b 45 08             	mov    0x8(%ebp),%eax
   10fb5:	c7 40 30 ff ff ff ff 	movl   $0xffffffff,0x30(%eax)
}
   10fbc:	8b 5d fc             	mov    -0x4(%ebp),%ebx
   10fbf:	c9                   	leave  
   10fc0:	c3                   	ret    

00010fc1 <write_cr3>:
static inline void write_cr3(uint32_t v) {
   10fc1:	55                   	push   %ebp
   10fc2:	89 e5                	mov    %esp,%ebp
    __asm__ __volatile__("mov %[v], %%cr3"::[v]"r"(v));
   10fc4:	8b 45 08             	mov    0x8(%ebp),%eax
   10fc7:	0f 22 d8             	mov    %eax,%cr3
}
   10fca:	90                   	nop
   10fcb:	5d                   	pop    %ebp
   10fcc:	c3                   	ret    

00010fcd <hlt>:
	idt.limit = size - 1;

	__asm__ __volatile__("lidt %0"::"m"(idt));
}

static inline void hlt(void) {
   10fcd:	55                   	push   %ebp
   10fce:	89 e5                	mov    %esp,%ebp
    __asm__ __volatile__("hlt");
   10fd0:	f4                   	hlt    
}
   10fd1:	90                   	nop
   10fd2:	5d                   	pop    %ebp
   10fd3:	c3                   	ret    

00010fd4 <write_tr>:

static inline void write_tr (uint32_t tss_selector) {
   10fd4:	55                   	push   %ebp
   10fd5:	89 e5                	mov    %esp,%ebp
    __asm__ __volatile__("ltr %%ax"::"a"(tss_selector));
   10fd7:	8b 45 08             	mov    0x8(%ebp),%eax
   10fda:	0f 00 d8             	ltr    %ax
}
   10fdd:	90                   	nop
   10fde:	5d                   	pop    %ebp
   10fdf:	c3                   	ret    

00010fe0 <list_node_init>:
    struct _list_node_t *pre;
    struct _list_node_t *next;
} list_node_t;

static inline void list_node_init(list_node_t *node)
{
   10fe0:	55                   	push   %ebp
   10fe1:	89 e5                	mov    %esp,%ebp
    node->pre = node->next = (list_node_t *)0;
   10fe3:	8b 45 08             	mov    0x8(%ebp),%eax
   10fe6:	c7 40 04 00 00 00 00 	movl   $0x0,0x4(%eax)
   10fed:	8b 45 08             	mov    0x8(%ebp),%eax
   10ff0:	8b 50 04             	mov    0x4(%eax),%edx
   10ff3:	8b 45 08             	mov    0x8(%ebp),%eax
   10ff6:	89 10                	mov    %edx,(%eax)
}
   10ff8:	90                   	nop
   10ff9:	5d                   	pop    %ebp
   10ffa:	c3                   	ret    

00010ffb <list_node_next>:
{
    return node->pre;
}

static inline list_node_t *list_node_next(list_node_t *node)
{
   10ffb:	55                   	push   %ebp
   10ffc:	89 e5                	mov    %esp,%ebp
    return node->next;
   10ffe:	8b 45 08             	mov    0x8(%ebp),%eax
   11001:	8b 40 04             	mov    0x4(%eax),%eax
}
   11004:	5d                   	pop    %ebp
   11005:	c3                   	ret    

00011006 <list_count>:
{
    return list->count == 0;
}

static inline int list_count(list_t *list)
{
   11006:	55                   	push   %ebp
   11007:	89 e5                	mov    %esp,%ebp
    return list->count;
   11009:	8b 45 08             	mov    0x8(%ebp),%eax
   1100c:	8b 40 08             	mov    0x8(%eax),%eax
}
   1100f:	5d                   	pop    %ebp
   11010:	c3                   	ret    

00011011 <list_first>:

static inline list_node_t *list_first(list_t *list)
{
   11011:	55                   	push   %ebp
   11012:	89 e5                	mov    %esp,%ebp
    return list->first;
   11014:	8b 45 08             	mov    0x8(%ebp),%eax
   11017:	8b 00                	mov    (%eax),%eax
}
   11019:	5d                   	pop    %ebp
   1101a:	c3                   	ret    

0001101b <mmu_set_page_dir>:
static inline void mmu_set_page_dir (uint32_t paddr) {
   1101b:	55                   	push   %ebp
   1101c:	89 e5                	mov    %esp,%ebp
    write_cr3(paddr);
   1101e:	ff 75 08             	pushl  0x8(%ebp)
   11021:	e8 9b ff ff ff       	call   10fc1 <write_cr3>
   11026:	83 c4 04             	add    $0x4,%esp
}
   11029:	90                   	nop
   1102a:	c9                   	leave  
   1102b:	c3                   	ret    

0001102c <tss_init>:
static task_manager_t task_manager;     
static uint32_t idle_task_stack[IDLE_STACK_SIZE];	
static task_t task_table[TASK_NR];      
static mutex_t task_table_mutex;        

static int tss_init (task_t * task, int flag, uint32_t entry, uint32_t esp) {
   1102c:	55                   	push   %ebp
   1102d:	89 e5                	mov    %esp,%ebp
   1102f:	83 ec 28             	sub    $0x28,%esp
    int tss_sel = gdt_alloc_desc();
   11032:	e8 fb 15 00 00       	call   12632 <gdt_alloc_desc>
   11037:	89 45 ec             	mov    %eax,-0x14(%ebp)
    if (tss_sel < 0) {
   1103a:	83 7d ec 00          	cmpl   $0x0,-0x14(%ebp)
   1103e:	79 1a                	jns    1105a <tss_init+0x2e>
        log_printf("alloc tss failed.\n");
   11040:	83 ec 0c             	sub    $0xc,%esp
   11043:	68 74 8e 01 00       	push   $0x18e74
   11048:	e8 d9 79 00 00       	call   18a26 <log_printf>
   1104d:	83 c4 10             	add    $0x10,%esp
        return -1;
   11050:	b8 ff ff ff ff       	mov    $0xffffffff,%eax
   11055:	e9 9d 01 00 00       	jmp    111f7 <tss_init+0x1cb>
    }

    segment_desc_set(tss_sel, (uint32_t)&task->tss, sizeof(tss_t),
   1105a:	8b 45 08             	mov    0x8(%ebp),%eax
   1105d:	05 44 02 00 00       	add    $0x244,%eax
   11062:	68 89 00 00 00       	push   $0x89
   11067:	6a 68                	push   $0x68
   11069:	50                   	push   %eax
   1106a:	ff 75 ec             	pushl  -0x14(%ebp)
   1106d:	e8 ba 14 00 00       	call   1252c <segment_desc_set>
   11072:	83 c4 10             	add    $0x10,%esp
            SEG_P_PRESENT | SEG_DPL0 | SEG_TYPE_TSS);

    kernel_memset(&task->tss, 0, sizeof(tss_t));
   11075:	8b 45 08             	mov    0x8(%ebp),%eax
   11078:	05 44 02 00 00       	add    $0x244,%eax
   1107d:	83 ec 04             	sub    $0x4,%esp
   11080:	6a 68                	push   $0x68
   11082:	6a 00                	push   $0x0
   11084:	50                   	push   %eax
   11085:	e8 f2 73 00 00       	call   1847c <kernel_memset>
   1108a:	83 c4 10             	add    $0x10,%esp

    uint32_t kernel_stack = memory_alloc_page();
   1108d:	e8 dd fb ff ff       	call   10c6f <memory_alloc_page>
   11092:	89 45 e8             	mov    %eax,-0x18(%ebp)
    if (kernel_stack == 0) {
   11095:	83 7d e8 00          	cmpl   $0x0,-0x18(%ebp)
   11099:	0f 84 2d 01 00 00    	je     111cc <tss_init+0x1a0>
        goto tss_init_failed;
    }
    
    int code_sel, data_sel;
    if (flag & TASK_FLAG_SYSTEM) {
   1109f:	8b 45 0c             	mov    0xc(%ebp),%eax
   110a2:	83 e0 01             	and    $0x1,%eax
   110a5:	85 c0                	test   %eax,%eax
   110a7:	74 10                	je     110b9 <tss_init+0x8d>
        code_sel = KERNEL_SELECTOR_CS;
   110a9:	c7 45 f4 08 00 00 00 	movl   $0x8,-0xc(%ebp)
        data_sel = KERNEL_SELECTOR_DS;
   110b0:	c7 45 f0 10 00 00 00 	movl   $0x10,-0x10(%ebp)
   110b7:	eb 16                	jmp    110cf <tss_init+0xa3>
    } else {
        code_sel = task_manager.app_code_sel | SEG_RPL3;
   110b9:	a1 b8 d5 01 00       	mov    0x1d5b8,%eax
   110be:	83 c8 03             	or     $0x3,%eax
   110c1:	89 45 f4             	mov    %eax,-0xc(%ebp)
        data_sel = task_manager.app_data_sel | SEG_RPL3;
   110c4:	a1 bc d5 01 00       	mov    0x1d5bc,%eax
   110c9:	83 c8 03             	or     $0x3,%eax
   110cc:	89 45 f0             	mov    %eax,-0x10(%ebp)
    }

    task->tss.eip = entry;
   110cf:	8b 45 08             	mov    0x8(%ebp),%eax
   110d2:	8b 55 10             	mov    0x10(%ebp),%edx
   110d5:	89 90 64 02 00 00    	mov    %edx,0x264(%eax)
    task->tss.esp = esp ? esp : kernel_stack + MEM_PAGE_SIZE; 
   110db:	83 7d 14 00          	cmpl   $0x0,0x14(%ebp)
   110df:	75 0a                	jne    110eb <tss_init+0xbf>
   110e1:	8b 45 e8             	mov    -0x18(%ebp),%eax
   110e4:	05 00 10 00 00       	add    $0x1000,%eax
   110e9:	eb 03                	jmp    110ee <tss_init+0xc2>
   110eb:	8b 45 14             	mov    0x14(%ebp),%eax
   110ee:	8b 55 08             	mov    0x8(%ebp),%edx
   110f1:	89 82 7c 02 00 00    	mov    %eax,0x27c(%edx)
    task->tss.esp0 = kernel_stack + MEM_PAGE_SIZE;
   110f7:	8b 45 e8             	mov    -0x18(%ebp),%eax
   110fa:	8d 90 00 10 00 00    	lea    0x1000(%eax),%edx
   11100:	8b 45 08             	mov    0x8(%ebp),%eax
   11103:	89 90 48 02 00 00    	mov    %edx,0x248(%eax)
    task->tss.ss0 = KERNEL_SELECTOR_DS;
   11109:	8b 45 08             	mov    0x8(%ebp),%eax
   1110c:	c7 80 4c 02 00 00 10 	movl   $0x10,0x24c(%eax)
   11113:	00 00 00 
    task->tss.eip = entry;
   11116:	8b 45 08             	mov    0x8(%ebp),%eax
   11119:	8b 55 10             	mov    0x10(%ebp),%edx
   1111c:	89 90 64 02 00 00    	mov    %edx,0x264(%eax)
    task->tss.eflags = EFLAGS_DEFAULT| EFLAGS_IF;
   11122:	8b 45 08             	mov    0x8(%ebp),%eax
   11125:	c7 80 68 02 00 00 02 	movl   $0x202,0x268(%eax)
   1112c:	02 00 00 
    task->tss.es = task->tss.ss = task->tss.ds = task->tss.fs 
            = task->tss.gs = data_sel;   
   1112f:	8b 55 f0             	mov    -0x10(%ebp),%edx
   11132:	8b 45 08             	mov    0x8(%ebp),%eax
   11135:	89 90 a0 02 00 00    	mov    %edx,0x2a0(%eax)
   1113b:	8b 45 08             	mov    0x8(%ebp),%eax
   1113e:	8b 90 a0 02 00 00    	mov    0x2a0(%eax),%edx
   11144:	8b 45 08             	mov    0x8(%ebp),%eax
   11147:	89 90 9c 02 00 00    	mov    %edx,0x29c(%eax)
    task->tss.es = task->tss.ss = task->tss.ds = task->tss.fs 
   1114d:	8b 45 08             	mov    0x8(%ebp),%eax
   11150:	8b 90 9c 02 00 00    	mov    0x29c(%eax),%edx
   11156:	8b 45 08             	mov    0x8(%ebp),%eax
   11159:	89 90 98 02 00 00    	mov    %edx,0x298(%eax)
   1115f:	8b 45 08             	mov    0x8(%ebp),%eax
   11162:	8b 90 98 02 00 00    	mov    0x298(%eax),%edx
   11168:	8b 45 08             	mov    0x8(%ebp),%eax
   1116b:	89 90 94 02 00 00    	mov    %edx,0x294(%eax)
   11171:	8b 45 08             	mov    0x8(%ebp),%eax
   11174:	8b 90 94 02 00 00    	mov    0x294(%eax),%edx
   1117a:	8b 45 08             	mov    0x8(%ebp),%eax
   1117d:	89 90 8c 02 00 00    	mov    %edx,0x28c(%eax)
    task->tss.cs = code_sel; 
   11183:	8b 55 f4             	mov    -0xc(%ebp),%edx
   11186:	8b 45 08             	mov    0x8(%ebp),%eax
   11189:	89 90 90 02 00 00    	mov    %edx,0x290(%eax)
    task->tss.iomap = 0;
   1118f:	8b 45 08             	mov    0x8(%ebp),%eax
   11192:	c7 80 a8 02 00 00 00 	movl   $0x0,0x2a8(%eax)
   11199:	00 00 00 

    uint32_t page_dir = memory_create_uvm();
   1119c:	e8 0e f6 ff ff       	call   107af <memory_create_uvm>
   111a1:	89 45 e4             	mov    %eax,-0x1c(%ebp)
    if (page_dir == 0) {
   111a4:	83 7d e4 00          	cmpl   $0x0,-0x1c(%ebp)
   111a8:	74 25                	je     111cf <tss_init+0x1a3>
        goto tss_init_failed;
    }
    task->tss.cr3 = page_dir;
   111aa:	8b 45 08             	mov    0x8(%ebp),%eax
   111ad:	8b 55 e4             	mov    -0x1c(%ebp),%edx
   111b0:	89 90 60 02 00 00    	mov    %edx,0x260(%eax)

    task->tss_sel = tss_sel;
   111b6:	8b 45 ec             	mov    -0x14(%ebp),%eax
   111b9:	89 c2                	mov    %eax,%edx
   111bb:	8b 45 08             	mov    0x8(%ebp),%eax
   111be:	66 89 90 ac 02 00 00 	mov    %dx,0x2ac(%eax)
    return 0;
   111c5:	b8 00 00 00 00       	mov    $0x0,%eax
   111ca:	eb 2b                	jmp    111f7 <tss_init+0x1cb>
        goto tss_init_failed;
   111cc:	90                   	nop
   111cd:	eb 01                	jmp    111d0 <tss_init+0x1a4>
        goto tss_init_failed;
   111cf:	90                   	nop
tss_init_failed:
    gdt_free_sel(tss_sel);
   111d0:	83 ec 0c             	sub    $0xc,%esp
   111d3:	ff 75 ec             	pushl  -0x14(%ebp)
   111d6:	e8 1e 14 00 00       	call   125f9 <gdt_free_sel>
   111db:	83 c4 10             	add    $0x10,%esp

    if (kernel_stack) {
   111de:	83 7d e8 00          	cmpl   $0x0,-0x18(%ebp)
   111e2:	74 0e                	je     111f2 <tss_init+0x1c6>
        memory_free_page(kernel_stack);
   111e4:	83 ec 0c             	sub    $0xc,%esp
   111e7:	ff 75 e8             	pushl  -0x18(%ebp)
   111ea:	e8 9a fa ff ff       	call   10c89 <memory_free_page>
   111ef:	83 c4 10             	add    $0x10,%esp
    }
    return -1;
   111f2:	b8 ff ff ff ff       	mov    $0xffffffff,%eax
}
   111f7:	c9                   	leave  
   111f8:	c3                   	ret    

000111f9 <task_init>:


int task_init (task_t *task, const char * name, int flag, uint32_t entry, uint32_t esp) {
   111f9:	55                   	push   %ebp
   111fa:	89 e5                	mov    %esp,%ebp
   111fc:	83 ec 18             	sub    $0x18,%esp
    ASSERT(task != (task_t *)0);
   111ff:	83 7d 08 00          	cmpl   $0x0,0x8(%ebp)
   11203:	75 19                	jne    1121e <task_init+0x25>
   11205:	68 87 8e 01 00       	push   $0x18e87
   1120a:	68 14 90 01 00       	push   $0x19014
   1120f:	6a 4c                	push   $0x4c
   11211:	68 9c 8e 01 00       	push   $0x18e9c
   11216:	e8 ae 75 00 00       	call   187c9 <panic>
   1121b:	83 c4 10             	add    $0x10,%esp

    int err = tss_init(task, flag, entry, esp);
   1121e:	ff 75 18             	pushl  0x18(%ebp)
   11221:	ff 75 14             	pushl  0x14(%ebp)
   11224:	ff 75 10             	pushl  0x10(%ebp)
   11227:	ff 75 08             	pushl  0x8(%ebp)
   1122a:	e8 fd fd ff ff       	call   1102c <tss_init>
   1122f:	83 c4 10             	add    $0x10,%esp
   11232:	89 45 f4             	mov    %eax,-0xc(%ebp)
    if (err < 0) {
   11235:	83 7d f4 00          	cmpl   $0x0,-0xc(%ebp)
   11239:	79 18                	jns    11253 <task_init+0x5a>
        log_printf("init task failed.\n");
   1123b:	83 ec 0c             	sub    $0xc,%esp
   1123e:	68 da 8e 01 00       	push   $0x18eda
   11243:	e8 de 77 00 00       	call   18a26 <log_printf>
   11248:	83 c4 10             	add    $0x10,%esp
        return err;
   1124b:	8b 45 f4             	mov    -0xc(%ebp),%eax
   1124e:	e9 f0 00 00 00       	jmp    11343 <task_init+0x14a>
    }

    kernel_strncpy(task->name, name, TASK_NAME_SIZE);
   11253:	8b 45 08             	mov    0x8(%ebp),%eax
   11256:	83 c0 04             	add    $0x4,%eax
   11259:	83 ec 04             	sub    $0x4,%esp
   1125c:	6a 20                	push   $0x20
   1125e:	ff 75 0c             	pushl  0xc(%ebp)
   11261:	50                   	push   %eax
   11262:	e8 9d 70 00 00       	call   18304 <kernel_strncpy>
   11267:	83 c4 10             	add    $0x10,%esp
    task->state = TASK_CREATED;
   1126a:	8b 45 08             	mov    0x8(%ebp),%eax
   1126d:	c7 00 00 00 00 00    	movl   $0x0,(%eax)
    task->sleep_ticks = 0;
   11273:	8b 45 08             	mov    0x8(%ebp),%eax
   11276:	c7 40 38 00 00 00 00 	movl   $0x0,0x38(%eax)
    task->time_slice = TASK_TIME_SLICE_DEFAULT;
   1127d:	8b 45 08             	mov    0x8(%ebp),%eax
   11280:	c7 40 3c 0a 00 00 00 	movl   $0xa,0x3c(%eax)
    task->slice_ticks = task->time_slice;
   11287:	8b 45 08             	mov    0x8(%ebp),%eax
   1128a:	8b 50 3c             	mov    0x3c(%eax),%edx
   1128d:	8b 45 08             	mov    0x8(%ebp),%eax
   11290:	89 50 40             	mov    %edx,0x40(%eax)
    task->parent = (task_t *)0;
   11293:	8b 45 08             	mov    0x8(%ebp),%eax
   11296:	c7 40 28 00 00 00 00 	movl   $0x0,0x28(%eax)
    task->heap_start = 0;
   1129d:	8b 45 08             	mov    0x8(%ebp),%eax
   112a0:	c7 40 2c 00 00 00 00 	movl   $0x0,0x2c(%eax)
    task->heap_end = 0;
   112a7:	8b 45 08             	mov    0x8(%ebp),%eax
   112aa:	c7 40 30 00 00 00 00 	movl   $0x0,0x30(%eax)
    list_node_init(&task->all_node);
   112b1:	8b 45 08             	mov    0x8(%ebp),%eax
   112b4:	05 c0 02 00 00       	add    $0x2c0,%eax
   112b9:	83 ec 0c             	sub    $0xc,%esp
   112bc:	50                   	push   %eax
   112bd:	e8 1e fd ff ff       	call   10fe0 <list_node_init>
   112c2:	83 c4 10             	add    $0x10,%esp
    list_node_init(&task->run_node);
   112c5:	8b 45 08             	mov    0x8(%ebp),%eax
   112c8:	05 b0 02 00 00       	add    $0x2b0,%eax
   112cd:	83 ec 0c             	sub    $0xc,%esp
   112d0:	50                   	push   %eax
   112d1:	e8 0a fd ff ff       	call   10fe0 <list_node_init>
   112d6:	83 c4 10             	add    $0x10,%esp
    list_node_init(&task->wait_node);
   112d9:	8b 45 08             	mov    0x8(%ebp),%eax
   112dc:	05 b8 02 00 00       	add    $0x2b8,%eax
   112e1:	83 ec 0c             	sub    $0xc,%esp
   112e4:	50                   	push   %eax
   112e5:	e8 f6 fc ff ff       	call   10fe0 <list_node_init>
   112ea:	83 c4 10             	add    $0x10,%esp

    kernel_memset(task->file_table, 0, sizeof(task->file_table));
   112ed:	8b 45 08             	mov    0x8(%ebp),%eax
   112f0:	83 c0 44             	add    $0x44,%eax
   112f3:	83 ec 04             	sub    $0x4,%esp
   112f6:	68 00 02 00 00       	push   $0x200
   112fb:	6a 00                	push   $0x0
   112fd:	50                   	push   %eax
   112fe:	e8 79 71 00 00       	call   1847c <kernel_memset>
   11303:	83 c4 10             	add    $0x10,%esp

    irq_state_t state = irq_enter_protection();
   11306:	e8 03 1e 00 00       	call   1310e <irq_enter_protection>
   1130b:	89 45 f0             	mov    %eax,-0x10(%ebp)
    task->pid = (uint32_t)task;   
   1130e:	8b 55 08             	mov    0x8(%ebp),%edx
   11311:	8b 45 08             	mov    0x8(%ebp),%eax
   11314:	89 50 24             	mov    %edx,0x24(%eax)
    list_insert_last(&task_manager.task_list, &task->all_node);
   11317:	8b 45 08             	mov    0x8(%ebp),%eax
   1131a:	05 c0 02 00 00       	add    $0x2c0,%eax
   1131f:	83 ec 08             	sub    $0x8,%esp
   11322:	50                   	push   %eax
   11323:	68 10 d0 01 00       	push   $0x1d010
   11328:	e8 69 75 00 00       	call   18896 <list_insert_last>
   1132d:	83 c4 10             	add    $0x10,%esp
    irq_leave_protection(state);
   11330:	83 ec 0c             	sub    $0xc,%esp
   11333:	ff 75 f0             	pushl  -0x10(%ebp)
   11336:	e8 eb 1d 00 00       	call   13126 <irq_leave_protection>
   1133b:	83 c4 10             	add    $0x10,%esp
    return 0;
   1133e:	b8 00 00 00 00       	mov    $0x0,%eax
}
   11343:	c9                   	leave  
   11344:	c3                   	ret    

00011345 <task_start>:


void task_start(task_t * task) {
   11345:	55                   	push   %ebp
   11346:	89 e5                	mov    %esp,%ebp
   11348:	83 ec 18             	sub    $0x18,%esp
    irq_state_t state = irq_enter_protection();
   1134b:	e8 be 1d 00 00       	call   1310e <irq_enter_protection>
   11350:	89 45 f4             	mov    %eax,-0xc(%ebp)
    task_set_ready(task);
   11353:	83 ec 0c             	sub    $0xc,%esp
   11356:	ff 75 08             	pushl  0x8(%ebp)
   11359:	e8 a9 02 00 00       	call   11607 <task_set_ready>
   1135e:	83 c4 10             	add    $0x10,%esp
    irq_leave_protection(state);
   11361:	83 ec 0c             	sub    $0xc,%esp
   11364:	ff 75 f4             	pushl  -0xc(%ebp)
   11367:	e8 ba 1d 00 00       	call   13126 <irq_leave_protection>
   1136c:	83 c4 10             	add    $0x10,%esp
}
   1136f:	90                   	nop
   11370:	c9                   	leave  
   11371:	c3                   	ret    

00011372 <task_uninit>:


void task_uninit (task_t * task) {
   11372:	55                   	push   %ebp
   11373:	89 e5                	mov    %esp,%ebp
   11375:	83 ec 08             	sub    $0x8,%esp
    if (task->tss_sel) {
   11378:	8b 45 08             	mov    0x8(%ebp),%eax
   1137b:	0f b7 80 ac 02 00 00 	movzwl 0x2ac(%eax),%eax
   11382:	66 85 c0             	test   %ax,%ax
   11385:	74 19                	je     113a0 <task_uninit+0x2e>
        gdt_free_sel(task->tss_sel);
   11387:	8b 45 08             	mov    0x8(%ebp),%eax
   1138a:	0f b7 80 ac 02 00 00 	movzwl 0x2ac(%eax),%eax
   11391:	0f b7 c0             	movzwl %ax,%eax
   11394:	83 ec 0c             	sub    $0xc,%esp
   11397:	50                   	push   %eax
   11398:	e8 5c 12 00 00       	call   125f9 <gdt_free_sel>
   1139d:	83 c4 10             	add    $0x10,%esp
    }

    if (task->tss.esp0) {
   113a0:	8b 45 08             	mov    0x8(%ebp),%eax
   113a3:	8b 80 48 02 00 00    	mov    0x248(%eax),%eax
   113a9:	85 c0                	test   %eax,%eax
   113ab:	74 1a                	je     113c7 <task_uninit+0x55>
        memory_free_page(task->tss.esp0 - MEM_PAGE_SIZE);
   113ad:	8b 45 08             	mov    0x8(%ebp),%eax
   113b0:	8b 80 48 02 00 00    	mov    0x248(%eax),%eax
   113b6:	2d 00 10 00 00       	sub    $0x1000,%eax
   113bb:	83 ec 0c             	sub    $0xc,%esp
   113be:	50                   	push   %eax
   113bf:	e8 c5 f8 ff ff       	call   10c89 <memory_free_page>
   113c4:	83 c4 10             	add    $0x10,%esp
    }

    if (task->tss.cr3) {
   113c7:	8b 45 08             	mov    0x8(%ebp),%eax
   113ca:	8b 80 60 02 00 00    	mov    0x260(%eax),%eax
   113d0:	85 c0                	test   %eax,%eax
   113d2:	74 15                	je     113e9 <task_uninit+0x77>
        memory_destroy_uvm(task->tss.cr3);
   113d4:	8b 45 08             	mov    0x8(%ebp),%eax
   113d7:	8b 80 60 02 00 00    	mov    0x260(%eax),%eax
   113dd:	83 ec 0c             	sub    $0xc,%esp
   113e0:	50                   	push   %eax
   113e1:	e8 4e f4 ff ff       	call   10834 <memory_destroy_uvm>
   113e6:	83 c4 10             	add    $0x10,%esp
    }

    kernel_memset(task, 0, sizeof(task_t));
   113e9:	83 ec 04             	sub    $0x4,%esp
   113ec:	68 c8 02 00 00       	push   $0x2c8
   113f1:	6a 00                	push   $0x0
   113f3:	ff 75 08             	pushl  0x8(%ebp)
   113f6:	e8 81 70 00 00       	call   1847c <kernel_memset>
   113fb:	83 c4 10             	add    $0x10,%esp
}
   113fe:	90                   	nop
   113ff:	c9                   	leave  
   11400:	c3                   	ret    

00011401 <task_switch_from_to>:

void simple_switch (uint32_t ** from, uint32_t * to);


void task_switch_from_to (task_t * from, task_t * to) {
   11401:	55                   	push   %ebp
   11402:	89 e5                	mov    %esp,%ebp
   11404:	83 ec 08             	sub    $0x8,%esp
     switch_to_tss(to->tss_sel);
   11407:	8b 45 0c             	mov    0xc(%ebp),%eax
   1140a:	0f b7 80 ac 02 00 00 	movzwl 0x2ac(%eax),%eax
   11411:	0f b7 c0             	movzwl %ax,%eax
   11414:	83 ec 0c             	sub    $0xc,%esp
   11417:	50                   	push   %eax
   11418:	e8 16 13 00 00       	call   12733 <switch_to_tss>
   1141d:	83 c4 10             	add    $0x10,%esp
    //simple_switch(&from->stack, to->stack);
}
   11420:	90                   	nop
   11421:	c9                   	leave  
   11422:	c3                   	ret    

00011423 <task_first_init>:


void task_first_init (void) {
   11423:	55                   	push   %ebp
   11424:	89 e5                	mov    %esp,%ebp
   11426:	83 ec 18             	sub    $0x18,%esp
    void first_task_entry (void);

    extern uint8_t s_first_task[], e_first_task[];

    uint32_t copy_size = (uint32_t)(e_first_task - s_first_task);
   11429:	ba 47 04 06 00       	mov    $0x60447,%edx
   1142e:	b8 c0 00 06 00       	mov    $0x600c0,%eax
   11433:	29 c2                	sub    %eax,%edx
   11435:	89 d0                	mov    %edx,%eax
   11437:	89 45 f4             	mov    %eax,-0xc(%ebp)
    uint32_t alloc_size = 10 * MEM_PAGE_SIZE;
   1143a:	c7 45 f0 00 a0 00 00 	movl   $0xa000,-0x10(%ebp)
    ASSERT(copy_size < alloc_size);
   11441:	8b 45 f4             	mov    -0xc(%ebp),%eax
   11444:	3b 45 f0             	cmp    -0x10(%ebp),%eax
   11447:	72 1c                	jb     11465 <task_first_init+0x42>
   11449:	68 ed 8e 01 00       	push   $0x18eed
   1144e:	68 20 90 01 00       	push   $0x19020
   11453:	68 91 00 00 00       	push   $0x91
   11458:	68 9c 8e 01 00       	push   $0x18e9c
   1145d:	e8 67 73 00 00       	call   187c9 <panic>
   11462:	83 c4 10             	add    $0x10,%esp

    uint32_t first_start = (uint32_t)first_task_entry;
   11465:	c7 45 ec 00 00 00 80 	movl   $0x80000000,-0x14(%ebp)


    task_init(&task_manager.first_task, "first task", 0, first_start, first_start + alloc_size);
   1146c:	8b 55 ec             	mov    -0x14(%ebp),%edx
   1146f:	8b 45 f0             	mov    -0x10(%ebp),%eax
   11472:	01 d0                	add    %edx,%eax
   11474:	83 ec 0c             	sub    $0xc,%esp
   11477:	50                   	push   %eax
   11478:	ff 75 ec             	pushl  -0x14(%ebp)
   1147b:	6a 00                	push   $0x0
   1147d:	68 04 8f 01 00       	push   $0x18f04
   11482:	68 28 d0 01 00       	push   $0x1d028
   11487:	e8 6d fd ff ff       	call   111f9 <task_init>
   1148c:	83 c4 20             	add    $0x20,%esp
    task_manager.first_task.heap_start = (uint32_t)e_first_task;  
   1148f:	b8 47 04 06 00       	mov    $0x60447,%eax
   11494:	a3 54 d0 01 00       	mov    %eax,0x1d054
    task_manager.first_task.heap_end = task_manager.first_task.heap_start;
   11499:	a1 54 d0 01 00       	mov    0x1d054,%eax
   1149e:	a3 58 d0 01 00       	mov    %eax,0x1d058
    task_manager.curr_task = &task_manager.first_task;
   114a3:	c7 05 00 d0 01 00 28 	movl   $0x1d028,0x1d000
   114aa:	d0 01 00 

    mmu_set_page_dir(task_manager.first_task.tss.cr3);
   114ad:	a1 88 d2 01 00       	mov    0x1d288,%eax
   114b2:	83 ec 0c             	sub    $0xc,%esp
   114b5:	50                   	push   %eax
   114b6:	e8 60 fb ff ff       	call   1101b <mmu_set_page_dir>
   114bb:	83 c4 10             	add    $0x10,%esp

    memory_alloc_page_for(first_start,  alloc_size, PTE_P | PTE_W | PTE_U);
   114be:	83 ec 04             	sub    $0x4,%esp
   114c1:	6a 07                	push   $0x7
   114c3:	ff 75 f0             	pushl  -0x10(%ebp)
   114c6:	ff 75 ec             	pushl  -0x14(%ebp)
   114c9:	e8 7c f7 ff ff       	call   10c4a <memory_alloc_page_for>
   114ce:	83 c4 10             	add    $0x10,%esp
    kernel_memcpy((void *)first_start, (void *)&s_first_task, copy_size);
   114d1:	8b 55 f4             	mov    -0xc(%ebp),%edx
   114d4:	8b 45 ec             	mov    -0x14(%ebp),%eax
   114d7:	83 ec 04             	sub    $0x4,%esp
   114da:	52                   	push   %edx
   114db:	68 c0 00 06 00       	push   $0x600c0
   114e0:	50                   	push   %eax
   114e1:	e8 47 6f 00 00       	call   1842d <kernel_memcpy>
   114e6:	83 c4 10             	add    $0x10,%esp

    task_start(&task_manager.first_task);
   114e9:	83 ec 0c             	sub    $0xc,%esp
   114ec:	68 28 d0 01 00       	push   $0x1d028
   114f1:	e8 4f fe ff ff       	call   11345 <task_start>
   114f6:	83 c4 10             	add    $0x10,%esp

    write_tr(task_manager.first_task.tss_sel);
   114f9:	0f b7 05 d4 d2 01 00 	movzwl 0x1d2d4,%eax
   11500:	0f b7 c0             	movzwl %ax,%eax
   11503:	83 ec 0c             	sub    $0xc,%esp
   11506:	50                   	push   %eax
   11507:	e8 c8 fa ff ff       	call   10fd4 <write_tr>
   1150c:	83 c4 10             	add    $0x10,%esp
}
   1150f:	90                   	nop
   11510:	c9                   	leave  
   11511:	c3                   	ret    

00011512 <task_first_task>:


task_t * task_first_task (void) {
   11512:	55                   	push   %ebp
   11513:	89 e5                	mov    %esp,%ebp
    return &task_manager.first_task;
   11515:	b8 28 d0 01 00       	mov    $0x1d028,%eax
}
   1151a:	5d                   	pop    %ebp
   1151b:	c3                   	ret    

0001151c <idle_task_entry>:

static void idle_task_entry (void) {
   1151c:	55                   	push   %ebp
   1151d:	89 e5                	mov    %esp,%ebp
    for (;;) {
        hlt();
   1151f:	e8 a9 fa ff ff       	call   10fcd <hlt>
   11524:	eb f9                	jmp    1151f <idle_task_entry+0x3>

00011526 <task_manager_init>:
    }
}


void task_manager_init (void) {
   11526:	55                   	push   %ebp
   11527:	89 e5                	mov    %esp,%ebp
   11529:	83 ec 18             	sub    $0x18,%esp
    kernel_memset(task_table, 0, sizeof(task_table));
   1152c:	83 ec 04             	sub    $0x4,%esp
   1152f:	68 00 64 01 00       	push   $0x16400
   11534:	6a 00                	push   $0x0
   11536:	68 c0 e5 01 00       	push   $0x1e5c0
   1153b:	e8 3c 6f 00 00       	call   1847c <kernel_memset>
   11540:	83 c4 10             	add    $0x10,%esp
    mutex_init(&task_table_mutex);
   11543:	83 ec 0c             	sub    $0xc,%esp
   11546:	68 c0 49 03 00       	push   $0x349c0
   1154b:	e8 e1 67 00 00       	call   17d31 <mutex_init>
   11550:	83 c4 10             	add    $0x10,%esp


    int sel = gdt_alloc_desc();
   11553:	e8 da 10 00 00       	call   12632 <gdt_alloc_desc>
   11558:	89 45 f4             	mov    %eax,-0xc(%ebp)
    segment_desc_set(sel, 0x00000000, 0xFFFFFFFF,
   1155b:	68 f2 40 00 00       	push   $0x40f2
   11560:	6a ff                	push   $0xffffffff
   11562:	6a 00                	push   $0x0
   11564:	ff 75 f4             	pushl  -0xc(%ebp)
   11567:	e8 c0 0f 00 00       	call   1252c <segment_desc_set>
   1156c:	83 c4 10             	add    $0x10,%esp
                     SEG_P_PRESENT | SEG_DPL3 | SEG_S_NORMAL |
                     SEG_TYPE_DATA | SEG_TYPE_RW | SEG_D);
    task_manager.app_data_sel = sel;
   1156f:	8b 45 f4             	mov    -0xc(%ebp),%eax
   11572:	a3 bc d5 01 00       	mov    %eax,0x1d5bc

    sel = gdt_alloc_desc();
   11577:	e8 b6 10 00 00       	call   12632 <gdt_alloc_desc>
   1157c:	89 45 f4             	mov    %eax,-0xc(%ebp)
    segment_desc_set(sel, 0x00000000, 0xFFFFFFFF,
   1157f:	68 fa 40 00 00       	push   $0x40fa
   11584:	6a ff                	push   $0xffffffff
   11586:	6a 00                	push   $0x0
   11588:	ff 75 f4             	pushl  -0xc(%ebp)
   1158b:	e8 9c 0f 00 00       	call   1252c <segment_desc_set>
   11590:	83 c4 10             	add    $0x10,%esp
                     SEG_P_PRESENT | SEG_DPL3 | SEG_S_NORMAL |
                     SEG_TYPE_CODE | SEG_TYPE_RW | SEG_D);
    task_manager.app_code_sel = sel;
   11593:	8b 45 f4             	mov    -0xc(%ebp),%eax
   11596:	a3 b8 d5 01 00       	mov    %eax,0x1d5b8

    list_init(&task_manager.ready_list);
   1159b:	83 ec 0c             	sub    $0xc,%esp
   1159e:	68 04 d0 01 00       	push   $0x1d004
   115a3:	e8 6a 72 00 00       	call   18812 <list_init>
   115a8:	83 c4 10             	add    $0x10,%esp
    list_init(&task_manager.task_list);
   115ab:	83 ec 0c             	sub    $0xc,%esp
   115ae:	68 10 d0 01 00       	push   $0x1d010
   115b3:	e8 5a 72 00 00       	call   18812 <list_init>
   115b8:	83 c4 10             	add    $0x10,%esp
    list_init(&task_manager.sleep_list);
   115bb:	83 ec 0c             	sub    $0xc,%esp
   115be:	68 1c d0 01 00       	push   $0x1d01c
   115c3:	e8 4a 72 00 00       	call   18812 <list_init>
   115c8:	83 c4 10             	add    $0x10,%esp

    task_init(&task_manager.idle_task,
   115cb:	b8 1c 15 01 00       	mov    $0x1151c,%eax
   115d0:	83 ec 0c             	sub    $0xc,%esp
   115d3:	6a 00                	push   $0x0
   115d5:	50                   	push   %eax
   115d6:	6a 01                	push   $0x1
   115d8:	68 0f 8f 01 00       	push   $0x18f0f
   115dd:	68 f0 d2 01 00       	push   $0x1d2f0
   115e2:	e8 12 fc ff ff       	call   111f9 <task_init>
   115e7:	83 c4 20             	add    $0x20,%esp
                "idle task",
                TASK_FLAG_SYSTEM,
                (uint32_t)idle_task_entry,
                0);     
    task_manager.curr_task = (task_t *)0;
   115ea:	c7 05 00 d0 01 00 00 	movl   $0x0,0x1d000
   115f1:	00 00 00 
    task_start(&task_manager.idle_task);
   115f4:	83 ec 0c             	sub    $0xc,%esp
   115f7:	68 f0 d2 01 00       	push   $0x1d2f0
   115fc:	e8 44 fd ff ff       	call   11345 <task_start>
   11601:	83 c4 10             	add    $0x10,%esp
}
   11604:	90                   	nop
   11605:	c9                   	leave  
   11606:	c3                   	ret    

00011607 <task_set_ready>:

void task_set_ready(task_t *task) {
   11607:	55                   	push   %ebp
   11608:	89 e5                	mov    %esp,%ebp
   1160a:	83 ec 08             	sub    $0x8,%esp
    if (task != &task_manager.idle_task) {
   1160d:	81 7d 08 f0 d2 01 00 	cmpl   $0x1d2f0,0x8(%ebp)
   11614:	74 22                	je     11638 <task_set_ready+0x31>
        list_insert_last(&task_manager.ready_list, &task->run_node);
   11616:	8b 45 08             	mov    0x8(%ebp),%eax
   11619:	05 b0 02 00 00       	add    $0x2b0,%eax
   1161e:	83 ec 08             	sub    $0x8,%esp
   11621:	50                   	push   %eax
   11622:	68 04 d0 01 00       	push   $0x1d004
   11627:	e8 6a 72 00 00       	call   18896 <list_insert_last>
   1162c:	83 c4 10             	add    $0x10,%esp
        task->state = TASK_READY;
   1162f:	8b 45 08             	mov    0x8(%ebp),%eax
   11632:	c7 00 03 00 00 00    	movl   $0x3,(%eax)
    }
}
   11638:	90                   	nop
   11639:	c9                   	leave  
   1163a:	c3                   	ret    

0001163b <task_set_block>:


void task_set_block (task_t *task) {
   1163b:	55                   	push   %ebp
   1163c:	89 e5                	mov    %esp,%ebp
   1163e:	83 ec 08             	sub    $0x8,%esp
    if (task != &task_manager.idle_task) {
   11641:	81 7d 08 f0 d2 01 00 	cmpl   $0x1d2f0,0x8(%ebp)
   11648:	74 19                	je     11663 <task_set_block+0x28>
        list_remove(&task_manager.ready_list, &task->run_node);
   1164a:	8b 45 08             	mov    0x8(%ebp),%eax
   1164d:	05 b0 02 00 00       	add    $0x2b0,%eax
   11652:	83 ec 08             	sub    $0x8,%esp
   11655:	50                   	push   %eax
   11656:	68 04 d0 01 00       	push   $0x1d004
   1165b:	e8 12 73 00 00       	call   18972 <list_remove>
   11660:	83 c4 10             	add    $0x10,%esp
    }
}
   11663:	90                   	nop
   11664:	c9                   	leave  
   11665:	c3                   	ret    

00011666 <task_next_run>:

static task_t * task_next_run (void) {
   11666:	55                   	push   %ebp
   11667:	89 e5                	mov    %esp,%ebp
   11669:	83 ec 10             	sub    $0x10,%esp
    if (list_count(&task_manager.ready_list) == 0) {
   1166c:	68 04 d0 01 00       	push   $0x1d004
   11671:	e8 90 f9 ff ff       	call   11006 <list_count>
   11676:	83 c4 04             	add    $0x4,%esp
   11679:	85 c0                	test   %eax,%eax
   1167b:	75 07                	jne    11684 <task_next_run+0x1e>
        return &task_manager.idle_task;
   1167d:	b8 f0 d2 01 00       	mov    $0x1d2f0,%eax
   11682:	eb 25                	jmp    116a9 <task_next_run+0x43>
    }
    
    list_node_t * task_node = list_first(&task_manager.ready_list);
   11684:	68 04 d0 01 00       	push   $0x1d004
   11689:	e8 83 f9 ff ff       	call   11011 <list_first>
   1168e:	83 c4 04             	add    $0x4,%esp
   11691:	89 45 fc             	mov    %eax,-0x4(%ebp)
    return list_node_parent(task_node, task_t, run_node);
   11694:	83 7d fc 00          	cmpl   $0x0,-0x4(%ebp)
   11698:	74 0a                	je     116a4 <task_next_run+0x3e>
   1169a:	8b 45 fc             	mov    -0x4(%ebp),%eax
   1169d:	2d b0 02 00 00       	sub    $0x2b0,%eax
   116a2:	eb 05                	jmp    116a9 <task_next_run+0x43>
   116a4:	b8 00 00 00 00       	mov    $0x0,%eax
}
   116a9:	c9                   	leave  
   116aa:	c3                   	ret    

000116ab <task_set_sleep>:


void task_set_sleep(task_t *task, uint32_t ticks) {
   116ab:	55                   	push   %ebp
   116ac:	89 e5                	mov    %esp,%ebp
   116ae:	83 ec 08             	sub    $0x8,%esp
    if (ticks <= 0) {
   116b1:	83 7d 0c 00          	cmpl   $0x0,0xc(%ebp)
   116b5:	74 2d                	je     116e4 <task_set_sleep+0x39>
        return;
    }

    task->sleep_ticks = ticks;
   116b7:	8b 55 0c             	mov    0xc(%ebp),%edx
   116ba:	8b 45 08             	mov    0x8(%ebp),%eax
   116bd:	89 50 38             	mov    %edx,0x38(%eax)
    task->state = TASK_SLEEP;
   116c0:	8b 45 08             	mov    0x8(%ebp),%eax
   116c3:	c7 00 02 00 00 00    	movl   $0x2,(%eax)
    list_insert_last(&task_manager.sleep_list, &task->run_node);
   116c9:	8b 45 08             	mov    0x8(%ebp),%eax
   116cc:	05 b0 02 00 00       	add    $0x2b0,%eax
   116d1:	83 ec 08             	sub    $0x8,%esp
   116d4:	50                   	push   %eax
   116d5:	68 1c d0 01 00       	push   $0x1d01c
   116da:	e8 b7 71 00 00       	call   18896 <list_insert_last>
   116df:	83 c4 10             	add    $0x10,%esp
   116e2:	eb 01                	jmp    116e5 <task_set_sleep+0x3a>
        return;
   116e4:	90                   	nop
}
   116e5:	c9                   	leave  
   116e6:	c3                   	ret    

000116e7 <task_set_wakeup>:


void task_set_wakeup (task_t *task) {
   116e7:	55                   	push   %ebp
   116e8:	89 e5                	mov    %esp,%ebp
   116ea:	83 ec 08             	sub    $0x8,%esp
    list_remove(&task_manager.sleep_list, &task->run_node);
   116ed:	8b 45 08             	mov    0x8(%ebp),%eax
   116f0:	05 b0 02 00 00       	add    $0x2b0,%eax
   116f5:	83 ec 08             	sub    $0x8,%esp
   116f8:	50                   	push   %eax
   116f9:	68 1c d0 01 00       	push   $0x1d01c
   116fe:	e8 6f 72 00 00       	call   18972 <list_remove>
   11703:	83 c4 10             	add    $0x10,%esp
}
   11706:	90                   	nop
   11707:	c9                   	leave  
   11708:	c3                   	ret    

00011709 <task_current>:


task_t * task_current (void) {
   11709:	55                   	push   %ebp
   1170a:	89 e5                	mov    %esp,%ebp
    return task_manager.curr_task;
   1170c:	a1 00 d0 01 00       	mov    0x1d000,%eax
}
   11711:	5d                   	pop    %ebp
   11712:	c3                   	ret    

00011713 <task_file>:


file_t * task_file (int fd) {
   11713:	55                   	push   %ebp
   11714:	89 e5                	mov    %esp,%ebp
   11716:	83 ec 10             	sub    $0x10,%esp
    if ((fd >= 0) && (fd < TASK_OFILE_NR)) {
   11719:	83 7d 08 00          	cmpl   $0x0,0x8(%ebp)
   1171d:	78 1f                	js     1173e <task_file+0x2b>
   1171f:	83 7d 08 7f          	cmpl   $0x7f,0x8(%ebp)
   11723:	7f 19                	jg     1173e <task_file+0x2b>
        file_t * file = task_current()->file_table[fd];
   11725:	e8 df ff ff ff       	call   11709 <task_current>
   1172a:	89 c2                	mov    %eax,%edx
   1172c:	8b 45 08             	mov    0x8(%ebp),%eax
   1172f:	83 c0 10             	add    $0x10,%eax
   11732:	8b 44 82 04          	mov    0x4(%edx,%eax,4),%eax
   11736:	89 45 fc             	mov    %eax,-0x4(%ebp)
        return file;
   11739:	8b 45 fc             	mov    -0x4(%ebp),%eax
   1173c:	eb 05                	jmp    11743 <task_file+0x30>
    }

    return (file_t *)0;
   1173e:	b8 00 00 00 00       	mov    $0x0,%eax
}
   11743:	c9                   	leave  
   11744:	c3                   	ret    

00011745 <task_alloc_fd>:

int task_alloc_fd (file_t * file) {
   11745:	55                   	push   %ebp
   11746:	89 e5                	mov    %esp,%ebp
   11748:	83 ec 10             	sub    $0x10,%esp
    task_t * task = task_current();
   1174b:	e8 b9 ff ff ff       	call   11709 <task_current>
   11750:	89 45 f8             	mov    %eax,-0x8(%ebp)

    for (int i = 0; i < TASK_OFILE_NR; i++) {
   11753:	c7 45 fc 00 00 00 00 	movl   $0x0,-0x4(%ebp)
   1175a:	eb 2f                	jmp    1178b <task_alloc_fd+0x46>
        file_t * p = task->file_table[i];
   1175c:	8b 45 f8             	mov    -0x8(%ebp),%eax
   1175f:	8b 55 fc             	mov    -0x4(%ebp),%edx
   11762:	83 c2 10             	add    $0x10,%edx
   11765:	8b 44 90 04          	mov    0x4(%eax,%edx,4),%eax
   11769:	89 45 f4             	mov    %eax,-0xc(%ebp)
        if (p == (file_t *)0) {
   1176c:	83 7d f4 00          	cmpl   $0x0,-0xc(%ebp)
   11770:	75 15                	jne    11787 <task_alloc_fd+0x42>
            task->file_table[i] = file;
   11772:	8b 45 f8             	mov    -0x8(%ebp),%eax
   11775:	8b 55 fc             	mov    -0x4(%ebp),%edx
   11778:	8d 4a 10             	lea    0x10(%edx),%ecx
   1177b:	8b 55 08             	mov    0x8(%ebp),%edx
   1177e:	89 54 88 04          	mov    %edx,0x4(%eax,%ecx,4)
            return i;
   11782:	8b 45 fc             	mov    -0x4(%ebp),%eax
   11785:	eb 0f                	jmp    11796 <task_alloc_fd+0x51>
    for (int i = 0; i < TASK_OFILE_NR; i++) {
   11787:	83 45 fc 01          	addl   $0x1,-0x4(%ebp)
   1178b:	83 7d fc 7f          	cmpl   $0x7f,-0x4(%ebp)
   1178f:	7e cb                	jle    1175c <task_alloc_fd+0x17>
        }
    }

    return -1;
   11791:	b8 ff ff ff ff       	mov    $0xffffffff,%eax
}
   11796:	c9                   	leave  
   11797:	c3                   	ret    

00011798 <task_remove_fd>:


void task_remove_fd (int fd) {
   11798:	55                   	push   %ebp
   11799:	89 e5                	mov    %esp,%ebp
    if ((fd >= 0) && (fd < TASK_OFILE_NR)) {
   1179b:	83 7d 08 00          	cmpl   $0x0,0x8(%ebp)
   1179f:	78 1b                	js     117bc <task_remove_fd+0x24>
   117a1:	83 7d 08 7f          	cmpl   $0x7f,0x8(%ebp)
   117a5:	7f 15                	jg     117bc <task_remove_fd+0x24>
        task_current()->file_table[fd] = (file_t *)0;
   117a7:	e8 5d ff ff ff       	call   11709 <task_current>
   117ac:	89 c2                	mov    %eax,%edx
   117ae:	8b 45 08             	mov    0x8(%ebp),%eax
   117b1:	83 c0 10             	add    $0x10,%eax
   117b4:	c7 44 82 04 00 00 00 	movl   $0x0,0x4(%edx,%eax,4)
   117bb:	00 
    }
}
   117bc:	90                   	nop
   117bd:	5d                   	pop    %ebp
   117be:	c3                   	ret    

000117bf <sys_yield>:


int sys_yield (void) {
   117bf:	55                   	push   %ebp
   117c0:	89 e5                	mov    %esp,%ebp
   117c2:	83 ec 18             	sub    $0x18,%esp
    irq_state_t state = irq_enter_protection();
   117c5:	e8 44 19 00 00       	call   1310e <irq_enter_protection>
   117ca:	89 45 f4             	mov    %eax,-0xc(%ebp)

    if (list_count(&task_manager.ready_list) > 1) {
   117cd:	83 ec 0c             	sub    $0xc,%esp
   117d0:	68 04 d0 01 00       	push   $0x1d004
   117d5:	e8 2c f8 ff ff       	call   11006 <list_count>
   117da:	83 c4 10             	add    $0x10,%esp
   117dd:	83 f8 01             	cmp    $0x1,%eax
   117e0:	7e 29                	jle    1180b <sys_yield+0x4c>
        task_t * curr_task = task_current();
   117e2:	e8 22 ff ff ff       	call   11709 <task_current>
   117e7:	89 45 f0             	mov    %eax,-0x10(%ebp)

        task_set_block(curr_task);
   117ea:	83 ec 0c             	sub    $0xc,%esp
   117ed:	ff 75 f0             	pushl  -0x10(%ebp)
   117f0:	e8 46 fe ff ff       	call   1163b <task_set_block>
   117f5:	83 c4 10             	add    $0x10,%esp
        task_set_ready(curr_task);
   117f8:	83 ec 0c             	sub    $0xc,%esp
   117fb:	ff 75 f0             	pushl  -0x10(%ebp)
   117fe:	e8 04 fe ff ff       	call   11607 <task_set_ready>
   11803:	83 c4 10             	add    $0x10,%esp

        task_dispatch();
   11806:	e8 15 00 00 00       	call   11820 <task_dispatch>
    }
    irq_leave_protection(state);
   1180b:	83 ec 0c             	sub    $0xc,%esp
   1180e:	ff 75 f4             	pushl  -0xc(%ebp)
   11811:	e8 10 19 00 00       	call   13126 <irq_leave_protection>
   11816:	83 c4 10             	add    $0x10,%esp

    return 0;
   11819:	b8 00 00 00 00       	mov    $0x0,%eax
}
   1181e:	c9                   	leave  
   1181f:	c3                   	ret    

00011820 <task_dispatch>:


void task_dispatch (void) {
   11820:	55                   	push   %ebp
   11821:	89 e5                	mov    %esp,%ebp
   11823:	83 ec 18             	sub    $0x18,%esp
    task_t * to = task_next_run();
   11826:	e8 3b fe ff ff       	call   11666 <task_next_run>
   1182b:	89 45 f4             	mov    %eax,-0xc(%ebp)
    if (to != task_manager.curr_task) {
   1182e:	a1 00 d0 01 00       	mov    0x1d000,%eax
   11833:	39 45 f4             	cmp    %eax,-0xc(%ebp)
   11836:	74 21                	je     11859 <task_dispatch+0x39>
        task_t * from = task_manager.curr_task;
   11838:	a1 00 d0 01 00       	mov    0x1d000,%eax
   1183d:	89 45 f0             	mov    %eax,-0x10(%ebp)

        task_manager.curr_task = to;
   11840:	8b 45 f4             	mov    -0xc(%ebp),%eax
   11843:	a3 00 d0 01 00       	mov    %eax,0x1d000
        task_switch_from_to(from, to);
   11848:	83 ec 08             	sub    $0x8,%esp
   1184b:	ff 75 f4             	pushl  -0xc(%ebp)
   1184e:	ff 75 f0             	pushl  -0x10(%ebp)
   11851:	e8 ab fb ff ff       	call   11401 <task_switch_from_to>
   11856:	83 c4 10             	add    $0x10,%esp
    }
}
   11859:	90                   	nop
   1185a:	c9                   	leave  
   1185b:	c3                   	ret    

0001185c <task_time_tick>:


void task_time_tick (void) {
   1185c:	55                   	push   %ebp
   1185d:	89 e5                	mov    %esp,%ebp
   1185f:	83 ec 28             	sub    $0x28,%esp
    task_t * curr_task = task_current();
   11862:	e8 a2 fe ff ff       	call   11709 <task_current>
   11867:	89 45 f0             	mov    %eax,-0x10(%ebp)

    irq_state_t state = irq_enter_protection();
   1186a:	e8 9f 18 00 00       	call   1310e <irq_enter_protection>
   1186f:	89 45 ec             	mov    %eax,-0x14(%ebp)
    if (--curr_task->slice_ticks == 0) {
   11872:	8b 45 f0             	mov    -0x10(%ebp),%eax
   11875:	8b 40 40             	mov    0x40(%eax),%eax
   11878:	8d 50 ff             	lea    -0x1(%eax),%edx
   1187b:	8b 45 f0             	mov    -0x10(%ebp),%eax
   1187e:	89 50 40             	mov    %edx,0x40(%eax)
   11881:	8b 45 f0             	mov    -0x10(%ebp),%eax
   11884:	8b 40 40             	mov    0x40(%eax),%eax
   11887:	85 c0                	test   %eax,%eax
   11889:	75 28                	jne    118b3 <task_time_tick+0x57>

        curr_task->slice_ticks = curr_task->time_slice;
   1188b:	8b 45 f0             	mov    -0x10(%ebp),%eax
   1188e:	8b 50 3c             	mov    0x3c(%eax),%edx
   11891:	8b 45 f0             	mov    -0x10(%ebp),%eax
   11894:	89 50 40             	mov    %edx,0x40(%eax)

        task_set_block(curr_task);
   11897:	83 ec 0c             	sub    $0xc,%esp
   1189a:	ff 75 f0             	pushl  -0x10(%ebp)
   1189d:	e8 99 fd ff ff       	call   1163b <task_set_block>
   118a2:	83 c4 10             	add    $0x10,%esp
        task_set_ready(curr_task);
   118a5:	83 ec 0c             	sub    $0xc,%esp
   118a8:	ff 75 f0             	pushl  -0x10(%ebp)
   118ab:	e8 57 fd ff ff       	call   11607 <task_set_ready>
   118b0:	83 c4 10             	add    $0x10,%esp
    }
    
    list_node_t * curr = list_first(&task_manager.sleep_list);
   118b3:	83 ec 0c             	sub    $0xc,%esp
   118b6:	68 1c d0 01 00       	push   $0x1d01c
   118bb:	e8 51 f7 ff ff       	call   11011 <list_first>
   118c0:	83 c4 10             	add    $0x10,%esp
   118c3:	89 45 f4             	mov    %eax,-0xc(%ebp)
    while (curr) {
   118c6:	eb 64                	jmp    1192c <task_time_tick+0xd0>
        list_node_t * next = list_node_next(curr);
   118c8:	83 ec 0c             	sub    $0xc,%esp
   118cb:	ff 75 f4             	pushl  -0xc(%ebp)
   118ce:	e8 28 f7 ff ff       	call   10ffb <list_node_next>
   118d3:	83 c4 10             	add    $0x10,%esp
   118d6:	89 45 e8             	mov    %eax,-0x18(%ebp)

        task_t * task = list_node_parent(curr, task_t, run_node);
   118d9:	83 7d f4 00          	cmpl   $0x0,-0xc(%ebp)
   118dd:	74 0a                	je     118e9 <task_time_tick+0x8d>
   118df:	8b 45 f4             	mov    -0xc(%ebp),%eax
   118e2:	2d b0 02 00 00       	sub    $0x2b0,%eax
   118e7:	eb 05                	jmp    118ee <task_time_tick+0x92>
   118e9:	b8 00 00 00 00       	mov    $0x0,%eax
   118ee:	89 45 e4             	mov    %eax,-0x1c(%ebp)
        if (--task->sleep_ticks == 0) {
   118f1:	8b 45 e4             	mov    -0x1c(%ebp),%eax
   118f4:	8b 40 38             	mov    0x38(%eax),%eax
   118f7:	8d 50 ff             	lea    -0x1(%eax),%edx
   118fa:	8b 45 e4             	mov    -0x1c(%ebp),%eax
   118fd:	89 50 38             	mov    %edx,0x38(%eax)
   11900:	8b 45 e4             	mov    -0x1c(%ebp),%eax
   11903:	8b 40 38             	mov    0x38(%eax),%eax
   11906:	85 c0                	test   %eax,%eax
   11908:	75 1c                	jne    11926 <task_time_tick+0xca>
            task_set_wakeup(task);
   1190a:	83 ec 0c             	sub    $0xc,%esp
   1190d:	ff 75 e4             	pushl  -0x1c(%ebp)
   11910:	e8 d2 fd ff ff       	call   116e7 <task_set_wakeup>
   11915:	83 c4 10             	add    $0x10,%esp
            task_set_ready(task);
   11918:	83 ec 0c             	sub    $0xc,%esp
   1191b:	ff 75 e4             	pushl  -0x1c(%ebp)
   1191e:	e8 e4 fc ff ff       	call   11607 <task_set_ready>
   11923:	83 c4 10             	add    $0x10,%esp
        }
        curr = next;
   11926:	8b 45 e8             	mov    -0x18(%ebp),%eax
   11929:	89 45 f4             	mov    %eax,-0xc(%ebp)
    while (curr) {
   1192c:	83 7d f4 00          	cmpl   $0x0,-0xc(%ebp)
   11930:	75 96                	jne    118c8 <task_time_tick+0x6c>
    }

    task_dispatch();
   11932:	e8 e9 fe ff ff       	call   11820 <task_dispatch>
    irq_leave_protection(state);
   11937:	83 ec 0c             	sub    $0xc,%esp
   1193a:	ff 75 ec             	pushl  -0x14(%ebp)
   1193d:	e8 e4 17 00 00       	call   13126 <irq_leave_protection>
   11942:	83 c4 10             	add    $0x10,%esp
}
   11945:	90                   	nop
   11946:	c9                   	leave  
   11947:	c3                   	ret    

00011948 <alloc_task>:

static task_t * alloc_task (void) {
   11948:	55                   	push   %ebp
   11949:	89 e5                	mov    %esp,%ebp
   1194b:	83 ec 18             	sub    $0x18,%esp
    task_t * task = (task_t *)0;
   1194e:	c7 45 f4 00 00 00 00 	movl   $0x0,-0xc(%ebp)

    mutex_lock(&task_table_mutex);
   11955:	83 ec 0c             	sub    $0xc,%esp
   11958:	68 c0 49 03 00       	push   $0x349c0
   1195d:	e8 fd 63 00 00       	call   17d5f <mutex_lock>
   11962:	83 c4 10             	add    $0x10,%esp
    for (int i = 0; i < TASK_NR; i++) {
   11965:	c7 45 f0 00 00 00 00 	movl   $0x0,-0x10(%ebp)
   1196c:	eb 28                	jmp    11996 <alloc_task+0x4e>
        task_t * curr = task_table + i;
   1196e:	8b 45 f0             	mov    -0x10(%ebp),%eax
   11971:	69 c0 c8 02 00 00    	imul   $0x2c8,%eax,%eax
   11977:	05 c0 e5 01 00       	add    $0x1e5c0,%eax
   1197c:	89 45 ec             	mov    %eax,-0x14(%ebp)
        if (curr->name[0] == 0) {
   1197f:	8b 45 ec             	mov    -0x14(%ebp),%eax
   11982:	0f b6 40 04          	movzbl 0x4(%eax),%eax
   11986:	84 c0                	test   %al,%al
   11988:	75 08                	jne    11992 <alloc_task+0x4a>
            task = curr;
   1198a:	8b 45 ec             	mov    -0x14(%ebp),%eax
   1198d:	89 45 f4             	mov    %eax,-0xc(%ebp)
            break;
   11990:	eb 0a                	jmp    1199c <alloc_task+0x54>
    for (int i = 0; i < TASK_NR; i++) {
   11992:	83 45 f0 01          	addl   $0x1,-0x10(%ebp)
   11996:	83 7d f0 7f          	cmpl   $0x7f,-0x10(%ebp)
   1199a:	7e d2                	jle    1196e <alloc_task+0x26>
        }
    }
    mutex_unlock(&task_table_mutex);
   1199c:	83 ec 0c             	sub    $0xc,%esp
   1199f:	68 c0 49 03 00       	push   $0x349c0
   119a4:	e8 4d 64 00 00       	call   17df6 <mutex_unlock>
   119a9:	83 c4 10             	add    $0x10,%esp

    return task;
   119ac:	8b 45 f4             	mov    -0xc(%ebp),%eax
}
   119af:	c9                   	leave  
   119b0:	c3                   	ret    

000119b1 <free_task>:


static void free_task (task_t * task) {
   119b1:	55                   	push   %ebp
   119b2:	89 e5                	mov    %esp,%ebp
   119b4:	83 ec 08             	sub    $0x8,%esp
    mutex_lock(&task_table_mutex);
   119b7:	83 ec 0c             	sub    $0xc,%esp
   119ba:	68 c0 49 03 00       	push   $0x349c0
   119bf:	e8 9b 63 00 00       	call   17d5f <mutex_lock>
   119c4:	83 c4 10             	add    $0x10,%esp
    task->name[0] = 0;
   119c7:	8b 45 08             	mov    0x8(%ebp),%eax
   119ca:	c6 40 04 00          	movb   $0x0,0x4(%eax)
    mutex_unlock(&task_table_mutex);
   119ce:	83 ec 0c             	sub    $0xc,%esp
   119d1:	68 c0 49 03 00       	push   $0x349c0
   119d6:	e8 1b 64 00 00       	call   17df6 <mutex_unlock>
   119db:	83 c4 10             	add    $0x10,%esp
}
   119de:	90                   	nop
   119df:	c9                   	leave  
   119e0:	c3                   	ret    

000119e1 <sys_msleep>:


void sys_msleep (uint32_t ms) {
   119e1:	55                   	push   %ebp
   119e2:	89 e5                	mov    %esp,%ebp
   119e4:	83 ec 18             	sub    $0x18,%esp
    if (ms < OS_TICK_MS) {
   119e7:	83 7d 08 09          	cmpl   $0x9,0x8(%ebp)
   119eb:	77 07                	ja     119f4 <sys_msleep+0x13>
        ms = OS_TICK_MS;
   119ed:	c7 45 08 0a 00 00 00 	movl   $0xa,0x8(%ebp)
    }

    irq_state_t state = irq_enter_protection();
   119f4:	e8 15 17 00 00       	call   1310e <irq_enter_protection>
   119f9:	89 45 f4             	mov    %eax,-0xc(%ebp)

    task_set_block(task_manager.curr_task);
   119fc:	a1 00 d0 01 00       	mov    0x1d000,%eax
   11a01:	83 ec 0c             	sub    $0xc,%esp
   11a04:	50                   	push   %eax
   11a05:	e8 31 fc ff ff       	call   1163b <task_set_block>
   11a0a:	83 c4 10             	add    $0x10,%esp
    task_set_sleep(task_manager.curr_task, (ms + (OS_TICK_MS - 1))/ OS_TICK_MS);
   11a0d:	8b 45 08             	mov    0x8(%ebp),%eax
   11a10:	83 c0 09             	add    $0x9,%eax
   11a13:	ba cd cc cc cc       	mov    $0xcccccccd,%edx
   11a18:	f7 e2                	mul    %edx
   11a1a:	c1 ea 03             	shr    $0x3,%edx
   11a1d:	a1 00 d0 01 00       	mov    0x1d000,%eax
   11a22:	83 ec 08             	sub    $0x8,%esp
   11a25:	52                   	push   %edx
   11a26:	50                   	push   %eax
   11a27:	e8 7f fc ff ff       	call   116ab <task_set_sleep>
   11a2c:	83 c4 10             	add    $0x10,%esp
    
    task_dispatch();
   11a2f:	e8 ec fd ff ff       	call   11820 <task_dispatch>

    irq_leave_protection(state);
   11a34:	83 ec 0c             	sub    $0xc,%esp
   11a37:	ff 75 f4             	pushl  -0xc(%ebp)
   11a3a:	e8 e7 16 00 00       	call   13126 <irq_leave_protection>
   11a3f:	83 c4 10             	add    $0x10,%esp
}
   11a42:	90                   	nop
   11a43:	c9                   	leave  
   11a44:	c3                   	ret    

00011a45 <copy_opened_files>:



static void copy_opened_files(task_t * child_task) {
   11a45:	55                   	push   %ebp
   11a46:	89 e5                	mov    %esp,%ebp
   11a48:	83 ec 18             	sub    $0x18,%esp
    task_t * parent = task_current();
   11a4b:	e8 b9 fc ff ff       	call   11709 <task_current>
   11a50:	89 45 f0             	mov    %eax,-0x10(%ebp)

    for (int i = 0; i < TASK_OFILE_NR; i++) {
   11a53:	c7 45 f4 00 00 00 00 	movl   $0x0,-0xc(%ebp)
   11a5a:	eb 42                	jmp    11a9e <copy_opened_files+0x59>
        file_t * file = parent->file_table[i];
   11a5c:	8b 45 f0             	mov    -0x10(%ebp),%eax
   11a5f:	8b 55 f4             	mov    -0xc(%ebp),%edx
   11a62:	83 c2 10             	add    $0x10,%edx
   11a65:	8b 44 90 04          	mov    0x4(%eax,%edx,4),%eax
   11a69:	89 45 ec             	mov    %eax,-0x14(%ebp)
        if (file) {
   11a6c:	83 7d ec 00          	cmpl   $0x0,-0x14(%ebp)
   11a70:	74 28                	je     11a9a <copy_opened_files+0x55>
            file_inc_ref(file);
   11a72:	83 ec 0c             	sub    $0xc,%esp
   11a75:	ff 75 ec             	pushl  -0x14(%ebp)
   11a78:	e8 fd 54 00 00       	call   16f7a <file_inc_ref>
   11a7d:	83 c4 10             	add    $0x10,%esp
            child_task->file_table[i] = parent->file_table[i];
   11a80:	8b 45 f0             	mov    -0x10(%ebp),%eax
   11a83:	8b 55 f4             	mov    -0xc(%ebp),%edx
   11a86:	83 c2 10             	add    $0x10,%edx
   11a89:	8b 54 90 04          	mov    0x4(%eax,%edx,4),%edx
   11a8d:	8b 45 08             	mov    0x8(%ebp),%eax
   11a90:	8b 4d f4             	mov    -0xc(%ebp),%ecx
   11a93:	83 c1 10             	add    $0x10,%ecx
   11a96:	89 54 88 04          	mov    %edx,0x4(%eax,%ecx,4)
    for (int i = 0; i < TASK_OFILE_NR; i++) {
   11a9a:	83 45 f4 01          	addl   $0x1,-0xc(%ebp)
   11a9e:	83 7d f4 7f          	cmpl   $0x7f,-0xc(%ebp)
   11aa2:	7e b8                	jle    11a5c <copy_opened_files+0x17>
        }
    }
}
   11aa4:	90                   	nop
   11aa5:	c9                   	leave  
   11aa6:	c3                   	ret    

00011aa7 <sys_fork>:


int sys_fork (void) {
   11aa7:	55                   	push   %ebp
   11aa8:	89 e5                	mov    %esp,%ebp
   11aaa:	83 ec 28             	sub    $0x28,%esp
    task_t * parent_task = task_current();
   11aad:	e8 57 fc ff ff       	call   11709 <task_current>
   11ab2:	89 45 f4             	mov    %eax,-0xc(%ebp)

    task_t * child_task = alloc_task();
   11ab5:	e8 8e fe ff ff       	call   11948 <alloc_task>
   11aba:	89 45 f0             	mov    %eax,-0x10(%ebp)
    if (child_task == (task_t *)0) {
   11abd:	83 7d f0 00          	cmpl   $0x0,-0x10(%ebp)
   11ac1:	0f 84 4f 01 00 00    	je     11c16 <sys_fork+0x16f>
        goto fork_failed;
    }

    syscall_frame_t * frame = (syscall_frame_t *)(parent_task->tss.esp0 - sizeof(syscall_frame_t));
   11ac7:	8b 45 f4             	mov    -0xc(%ebp),%eax
   11aca:	8b 80 48 02 00 00    	mov    0x248(%eax),%eax
   11ad0:	83 e8 58             	sub    $0x58,%eax
   11ad3:	89 45 ec             	mov    %eax,-0x14(%ebp)

    int err = task_init(child_task,  parent_task->name, 0, frame->eip,
                        frame->esp + sizeof(uint32_t)*SYSCALL_PARAM_COUNT);
   11ad6:	8b 45 ec             	mov    -0x14(%ebp),%eax
   11ad9:	8b 40 50             	mov    0x50(%eax),%eax
   11adc:	8d 50 14             	lea    0x14(%eax),%edx
    int err = task_init(child_task,  parent_task->name, 0, frame->eip,
   11adf:	8b 45 ec             	mov    -0x14(%ebp),%eax
   11ae2:	8b 40 34             	mov    0x34(%eax),%eax
   11ae5:	89 c1                	mov    %eax,%ecx
   11ae7:	8b 45 f4             	mov    -0xc(%ebp),%eax
   11aea:	83 c0 04             	add    $0x4,%eax
   11aed:	83 ec 0c             	sub    $0xc,%esp
   11af0:	52                   	push   %edx
   11af1:	51                   	push   %ecx
   11af2:	6a 00                	push   $0x0
   11af4:	50                   	push   %eax
   11af5:	ff 75 f0             	pushl  -0x10(%ebp)
   11af8:	e8 fc f6 ff ff       	call   111f9 <task_init>
   11afd:	83 c4 20             	add    $0x20,%esp
   11b00:	89 45 e8             	mov    %eax,-0x18(%ebp)
    if (err < 0) {
   11b03:	83 7d e8 00          	cmpl   $0x0,-0x18(%ebp)
   11b07:	0f 88 0c 01 00 00    	js     11c19 <sys_fork+0x172>
        goto fork_failed;
    }
    copy_opened_files(child_task);
   11b0d:	83 ec 0c             	sub    $0xc,%esp
   11b10:	ff 75 f0             	pushl  -0x10(%ebp)
   11b13:	e8 2d ff ff ff       	call   11a45 <copy_opened_files>
   11b18:	83 c4 10             	add    $0x10,%esp

    tss_t * tss = &child_task->tss;
   11b1b:	8b 45 f0             	mov    -0x10(%ebp),%eax
   11b1e:	05 44 02 00 00       	add    $0x244,%eax
   11b23:	89 45 e4             	mov    %eax,-0x1c(%ebp)
    tss->eax = 0;                       
   11b26:	8b 45 e4             	mov    -0x1c(%ebp),%eax
   11b29:	c7 40 28 00 00 00 00 	movl   $0x0,0x28(%eax)
    tss->ebx = frame->ebx;
   11b30:	8b 45 ec             	mov    -0x14(%ebp),%eax
   11b33:	8b 40 24             	mov    0x24(%eax),%eax
   11b36:	89 c2                	mov    %eax,%edx
   11b38:	8b 45 e4             	mov    -0x1c(%ebp),%eax
   11b3b:	89 50 34             	mov    %edx,0x34(%eax)
    tss->ecx = frame->ecx;
   11b3e:	8b 45 ec             	mov    -0x14(%ebp),%eax
   11b41:	8b 40 2c             	mov    0x2c(%eax),%eax
   11b44:	89 c2                	mov    %eax,%edx
   11b46:	8b 45 e4             	mov    -0x1c(%ebp),%eax
   11b49:	89 50 2c             	mov    %edx,0x2c(%eax)
    tss->edx = frame->edx;
   11b4c:	8b 45 ec             	mov    -0x14(%ebp),%eax
   11b4f:	8b 40 28             	mov    0x28(%eax),%eax
   11b52:	89 c2                	mov    %eax,%edx
   11b54:	8b 45 e4             	mov    -0x1c(%ebp),%eax
   11b57:	89 50 30             	mov    %edx,0x30(%eax)
    tss->esi = frame->esi;
   11b5a:	8b 45 ec             	mov    -0x14(%ebp),%eax
   11b5d:	8b 40 18             	mov    0x18(%eax),%eax
   11b60:	89 c2                	mov    %eax,%edx
   11b62:	8b 45 e4             	mov    -0x1c(%ebp),%eax
   11b65:	89 50 40             	mov    %edx,0x40(%eax)
    tss->edi = frame->edi;
   11b68:	8b 45 ec             	mov    -0x14(%ebp),%eax
   11b6b:	8b 40 14             	mov    0x14(%eax),%eax
   11b6e:	89 c2                	mov    %eax,%edx
   11b70:	8b 45 e4             	mov    -0x1c(%ebp),%eax
   11b73:	89 50 44             	mov    %edx,0x44(%eax)
    tss->ebp = frame->ebp;
   11b76:	8b 45 ec             	mov    -0x14(%ebp),%eax
   11b79:	8b 40 1c             	mov    0x1c(%eax),%eax
   11b7c:	89 c2                	mov    %eax,%edx
   11b7e:	8b 45 e4             	mov    -0x1c(%ebp),%eax
   11b81:	89 50 3c             	mov    %edx,0x3c(%eax)

    tss->cs = frame->cs;
   11b84:	8b 45 ec             	mov    -0x14(%ebp),%eax
   11b87:	8b 40 38             	mov    0x38(%eax),%eax
   11b8a:	89 c2                	mov    %eax,%edx
   11b8c:	8b 45 e4             	mov    -0x1c(%ebp),%eax
   11b8f:	89 50 4c             	mov    %edx,0x4c(%eax)
    tss->ds = frame->ds;
   11b92:	8b 45 ec             	mov    -0x14(%ebp),%eax
   11b95:	8b 40 10             	mov    0x10(%eax),%eax
   11b98:	89 c2                	mov    %eax,%edx
   11b9a:	8b 45 e4             	mov    -0x1c(%ebp),%eax
   11b9d:	89 50 54             	mov    %edx,0x54(%eax)
    tss->es = frame->es;
   11ba0:	8b 45 ec             	mov    -0x14(%ebp),%eax
   11ba3:	8b 40 0c             	mov    0xc(%eax),%eax
   11ba6:	89 c2                	mov    %eax,%edx
   11ba8:	8b 45 e4             	mov    -0x1c(%ebp),%eax
   11bab:	89 50 48             	mov    %edx,0x48(%eax)
    tss->fs = frame->fs;
   11bae:	8b 45 ec             	mov    -0x14(%ebp),%eax
   11bb1:	8b 40 08             	mov    0x8(%eax),%eax
   11bb4:	89 c2                	mov    %eax,%edx
   11bb6:	8b 45 e4             	mov    -0x1c(%ebp),%eax
   11bb9:	89 50 58             	mov    %edx,0x58(%eax)
    tss->gs = frame->gs;
   11bbc:	8b 45 ec             	mov    -0x14(%ebp),%eax
   11bbf:	8b 40 04             	mov    0x4(%eax),%eax
   11bc2:	89 c2                	mov    %eax,%edx
   11bc4:	8b 45 e4             	mov    -0x1c(%ebp),%eax
   11bc7:	89 50 5c             	mov    %edx,0x5c(%eax)
    tss->eflags = frame->eflags;
   11bca:	8b 45 ec             	mov    -0x14(%ebp),%eax
   11bcd:	8b 00                	mov    (%eax),%eax
   11bcf:	89 c2                	mov    %eax,%edx
   11bd1:	8b 45 e4             	mov    -0x1c(%ebp),%eax
   11bd4:	89 50 24             	mov    %edx,0x24(%eax)

    child_task->parent = parent_task;
   11bd7:	8b 45 f0             	mov    -0x10(%ebp),%eax
   11bda:	8b 55 f4             	mov    -0xc(%ebp),%edx
   11bdd:	89 50 28             	mov    %edx,0x28(%eax)

    if ((child_task->tss.cr3 = memory_copy_uvm(parent_task->tss.cr3)) < 0) {
   11be0:	8b 45 f4             	mov    -0xc(%ebp),%eax
   11be3:	8b 80 60 02 00 00    	mov    0x260(%eax),%eax
   11be9:	83 ec 0c             	sub    $0xc,%esp
   11bec:	50                   	push   %eax
   11bed:	e8 51 ed ff ff       	call   10943 <memory_copy_uvm>
   11bf2:	83 c4 10             	add    $0x10,%esp
   11bf5:	89 c2                	mov    %eax,%edx
   11bf7:	8b 45 f0             	mov    -0x10(%ebp),%eax
   11bfa:	89 90 60 02 00 00    	mov    %edx,0x260(%eax)
        goto fork_failed;
    }

    task_start(child_task);
   11c00:	83 ec 0c             	sub    $0xc,%esp
   11c03:	ff 75 f0             	pushl  -0x10(%ebp)
   11c06:	e8 3a f7 ff ff       	call   11345 <task_start>
   11c0b:	83 c4 10             	add    $0x10,%esp
    return child_task->pid;
   11c0e:	8b 45 f0             	mov    -0x10(%ebp),%eax
   11c11:	8b 40 24             	mov    0x24(%eax),%eax
   11c14:	eb 2b                	jmp    11c41 <sys_fork+0x19a>
        goto fork_failed;
   11c16:	90                   	nop
   11c17:	eb 01                	jmp    11c1a <sys_fork+0x173>
        goto fork_failed;
   11c19:	90                   	nop
fork_failed:
    if (child_task) {
   11c1a:	83 7d f0 00          	cmpl   $0x0,-0x10(%ebp)
   11c1e:	74 1c                	je     11c3c <sys_fork+0x195>
        task_uninit (child_task);
   11c20:	83 ec 0c             	sub    $0xc,%esp
   11c23:	ff 75 f0             	pushl  -0x10(%ebp)
   11c26:	e8 47 f7 ff ff       	call   11372 <task_uninit>
   11c2b:	83 c4 10             	add    $0x10,%esp
        free_task(child_task);
   11c2e:	83 ec 0c             	sub    $0xc,%esp
   11c31:	ff 75 f0             	pushl  -0x10(%ebp)
   11c34:	e8 78 fd ff ff       	call   119b1 <free_task>
   11c39:	83 c4 10             	add    $0x10,%esp
    }
    return -1;
   11c3c:	b8 ff ff ff ff       	mov    $0xffffffff,%eax
}
   11c41:	c9                   	leave  
   11c42:	c3                   	ret    

00011c43 <load_phdr>:

static int load_phdr(int file, Elf32_Phdr * phdr, uint32_t page_dir) {
   11c43:	55                   	push   %ebp
   11c44:	89 e5                	mov    %esp,%ebp
   11c46:	83 ec 28             	sub    $0x28,%esp
    ASSERT((phdr->p_vaddr & (MEM_PAGE_SIZE - 1)) == 0);
   11c49:	8b 45 0c             	mov    0xc(%ebp),%eax
   11c4c:	8b 40 08             	mov    0x8(%eax),%eax
   11c4f:	25 ff 0f 00 00       	and    $0xfff,%eax
   11c54:	85 c0                	test   %eax,%eax
   11c56:	74 1c                	je     11c74 <load_phdr+0x31>
   11c58:	68 1c 8f 01 00       	push   $0x18f1c
   11c5d:	68 30 90 01 00       	push   $0x19030
   11c62:	68 bb 01 00 00       	push   $0x1bb
   11c67:	68 9c 8e 01 00       	push   $0x18e9c
   11c6c:	e8 58 6b 00 00       	call   187c9 <panic>
   11c71:	83 c4 10             	add    $0x10,%esp

    int err = memory_alloc_for_page_dir(page_dir, phdr->p_vaddr, phdr->p_memsz, PTE_P | PTE_U | PTE_W);
   11c74:	8b 45 0c             	mov    0xc(%ebp),%eax
   11c77:	8b 50 14             	mov    0x14(%eax),%edx
   11c7a:	8b 45 0c             	mov    0xc(%ebp),%eax
   11c7d:	8b 40 08             	mov    0x8(%eax),%eax
   11c80:	6a 07                	push   $0x7
   11c82:	52                   	push   %edx
   11c83:	50                   	push   %eax
   11c84:	ff 75 10             	pushl  0x10(%ebp)
   11c87:	e8 d5 ee ff ff       	call   10b61 <memory_alloc_for_page_dir>
   11c8c:	83 c4 10             	add    $0x10,%esp
   11c8f:	89 45 ec             	mov    %eax,-0x14(%ebp)
    if (err < 0) {
   11c92:	83 7d ec 00          	cmpl   $0x0,-0x14(%ebp)
   11c96:	79 1a                	jns    11cb2 <load_phdr+0x6f>
        log_printf("no memory");
   11c98:	83 ec 0c             	sub    $0xc,%esp
   11c9b:	68 47 8f 01 00       	push   $0x18f47
   11ca0:	e8 81 6d 00 00       	call   18a26 <log_printf>
   11ca5:	83 c4 10             	add    $0x10,%esp
        return -1;
   11ca8:	b8 ff ff ff ff       	mov    $0xffffffff,%eax
   11cad:	e9 b8 00 00 00       	jmp    11d6a <load_phdr+0x127>
    }

    if (sys_lseek(file, phdr->p_offset, 0) < 0) {
   11cb2:	8b 45 0c             	mov    0xc(%ebp),%eax
   11cb5:	8b 40 04             	mov    0x4(%eax),%eax
   11cb8:	83 ec 04             	sub    $0x4,%esp
   11cbb:	6a 00                	push   $0x0
   11cbd:	50                   	push   %eax
   11cbe:	ff 75 08             	pushl  0x8(%ebp)
   11cc1:	e8 ab 5b 00 00       	call   17871 <sys_lseek>
   11cc6:	83 c4 10             	add    $0x10,%esp
   11cc9:	85 c0                	test   %eax,%eax
   11ccb:	79 1a                	jns    11ce7 <load_phdr+0xa4>
        log_printf("read file failed");
   11ccd:	83 ec 0c             	sub    $0xc,%esp
   11cd0:	68 51 8f 01 00       	push   $0x18f51
   11cd5:	e8 4c 6d 00 00       	call   18a26 <log_printf>
   11cda:	83 c4 10             	add    $0x10,%esp
        return -1;
   11cdd:	b8 ff ff ff ff       	mov    $0xffffffff,%eax
   11ce2:	e9 83 00 00 00       	jmp    11d6a <load_phdr+0x127>
    }

    uint32_t vaddr = phdr->p_vaddr;
   11ce7:	8b 45 0c             	mov    0xc(%ebp),%eax
   11cea:	8b 40 08             	mov    0x8(%eax),%eax
   11ced:	89 45 f4             	mov    %eax,-0xc(%ebp)
    uint32_t size = phdr->p_filesz;
   11cf0:	8b 45 0c             	mov    0xc(%ebp),%eax
   11cf3:	8b 40 10             	mov    0x10(%eax),%eax
   11cf6:	89 45 f0             	mov    %eax,-0x10(%ebp)
    while (size > 0) {
   11cf9:	eb 64                	jmp    11d5f <load_phdr+0x11c>
        int curr_size = (size > MEM_PAGE_SIZE) ? MEM_PAGE_SIZE : size;
   11cfb:	b8 00 10 00 00       	mov    $0x1000,%eax
   11d00:	81 7d f0 00 10 00 00 	cmpl   $0x1000,-0x10(%ebp)
   11d07:	0f 46 45 f0          	cmovbe -0x10(%ebp),%eax
   11d0b:	89 45 e8             	mov    %eax,-0x18(%ebp)

        uint32_t paddr = memory_get_paddr(page_dir, vaddr);
   11d0e:	83 ec 08             	sub    $0x8,%esp
   11d11:	ff 75 f4             	pushl  -0xc(%ebp)
   11d14:	ff 75 10             	pushl  0x10(%ebp)
   11d17:	e8 7c ed ff ff       	call   10a98 <memory_get_paddr>
   11d1c:	83 c4 10             	add    $0x10,%esp
   11d1f:	89 45 e4             	mov    %eax,-0x1c(%ebp)

        if (sys_read(file, (char *)paddr, curr_size) <  curr_size) {
   11d22:	8b 45 e4             	mov    -0x1c(%ebp),%eax
   11d25:	83 ec 04             	sub    $0x4,%esp
   11d28:	ff 75 e8             	pushl  -0x18(%ebp)
   11d2b:	50                   	push   %eax
   11d2c:	ff 75 08             	pushl  0x8(%ebp)
   11d2f:	e8 b4 59 00 00       	call   176e8 <sys_read>
   11d34:	83 c4 10             	add    $0x10,%esp
   11d37:	39 45 e8             	cmp    %eax,-0x18(%ebp)
   11d3a:	7e 17                	jle    11d53 <load_phdr+0x110>
            log_printf("read file failed");
   11d3c:	83 ec 0c             	sub    $0xc,%esp
   11d3f:	68 51 8f 01 00       	push   $0x18f51
   11d44:	e8 dd 6c 00 00       	call   18a26 <log_printf>
   11d49:	83 c4 10             	add    $0x10,%esp
            return -1;
   11d4c:	b8 ff ff ff ff       	mov    $0xffffffff,%eax
   11d51:	eb 17                	jmp    11d6a <load_phdr+0x127>
        }

        size -= curr_size;
   11d53:	8b 45 e8             	mov    -0x18(%ebp),%eax
   11d56:	29 45 f0             	sub    %eax,-0x10(%ebp)
        vaddr += curr_size;
   11d59:	8b 45 e8             	mov    -0x18(%ebp),%eax
   11d5c:	01 45 f4             	add    %eax,-0xc(%ebp)
    while (size > 0) {
   11d5f:	83 7d f0 00          	cmpl   $0x0,-0x10(%ebp)
   11d63:	75 96                	jne    11cfb <load_phdr+0xb8>
    }

    return 0;
   11d65:	b8 00 00 00 00       	mov    $0x0,%eax
}
   11d6a:	c9                   	leave  
   11d6b:	c3                   	ret    

00011d6c <load_elf_file>:

static uint32_t load_elf_file (task_t * task, const char * name, uint32_t page_dir) {
   11d6c:	55                   	push   %ebp
   11d6d:	89 e5                	mov    %esp,%ebp
   11d6f:	83 ec 78             	sub    $0x78,%esp
    Elf32_Ehdr elf_hdr;
    Elf32_Phdr elf_phdr;

    int file = sys_open(name, 0);   
   11d72:	83 ec 08             	sub    $0x8,%esp
   11d75:	6a 00                	push   $0x0
   11d77:	ff 75 0c             	pushl  0xc(%ebp)
   11d7a:	e8 c5 56 00 00       	call   17444 <sys_open>
   11d7f:	83 c4 10             	add    $0x10,%esp
   11d82:	89 45 ec             	mov    %eax,-0x14(%ebp)
    if (file < 0) {
   11d85:	83 7d ec 00          	cmpl   $0x0,-0x14(%ebp)
   11d89:	79 18                	jns    11da3 <load_elf_file+0x37>
        log_printf("open file failed.%s", name);
   11d8b:	83 ec 08             	sub    $0x8,%esp
   11d8e:	ff 75 0c             	pushl  0xc(%ebp)
   11d91:	68 62 8f 01 00       	push   $0x18f62
   11d96:	e8 8b 6c 00 00       	call   18a26 <log_printf>
   11d9b:	83 c4 10             	add    $0x10,%esp
        goto load_failed;
   11d9e:	e9 c1 01 00 00       	jmp    11f64 <load_elf_file+0x1f8>
    }

    int cnt = sys_read(file, (char *)&elf_hdr, sizeof(Elf32_Ehdr));
   11da3:	83 ec 04             	sub    $0x4,%esp
   11da6:	6a 34                	push   $0x34
   11da8:	8d 45 b0             	lea    -0x50(%ebp),%eax
   11dab:	50                   	push   %eax
   11dac:	ff 75 ec             	pushl  -0x14(%ebp)
   11daf:	e8 34 59 00 00       	call   176e8 <sys_read>
   11db4:	83 c4 10             	add    $0x10,%esp
   11db7:	89 45 e8             	mov    %eax,-0x18(%ebp)
    if (cnt < sizeof(Elf32_Ehdr)) {
   11dba:	8b 45 e8             	mov    -0x18(%ebp),%eax
   11dbd:	83 f8 33             	cmp    $0x33,%eax
   11dc0:	77 18                	ja     11dda <load_elf_file+0x6e>
        log_printf("elf hdr too small. size=%d", cnt);
   11dc2:	83 ec 08             	sub    $0x8,%esp
   11dc5:	ff 75 e8             	pushl  -0x18(%ebp)
   11dc8:	68 76 8f 01 00       	push   $0x18f76
   11dcd:	e8 54 6c 00 00       	call   18a26 <log_printf>
   11dd2:	83 c4 10             	add    $0x10,%esp
        goto load_failed;
   11dd5:	e9 8a 01 00 00       	jmp    11f64 <load_elf_file+0x1f8>
    }

    if ((elf_hdr.e_ident[0] != ELF_MAGIC) || (elf_hdr.e_ident[1] != 'E')
   11dda:	0f b6 45 b0          	movzbl -0x50(%ebp),%eax
   11dde:	3c 7f                	cmp    $0x7f,%al
   11de0:	75 18                	jne    11dfa <load_elf_file+0x8e>
   11de2:	0f b6 45 b1          	movzbl -0x4f(%ebp),%eax
   11de6:	3c 45                	cmp    $0x45,%al
   11de8:	75 10                	jne    11dfa <load_elf_file+0x8e>
        || (elf_hdr.e_ident[2] != 'L') || (elf_hdr.e_ident[3] != 'F')) {
   11dea:	0f b6 45 b2          	movzbl -0x4e(%ebp),%eax
   11dee:	3c 4c                	cmp    $0x4c,%al
   11df0:	75 08                	jne    11dfa <load_elf_file+0x8e>
   11df2:	0f b6 45 b3          	movzbl -0x4d(%ebp),%eax
   11df6:	3c 46                	cmp    $0x46,%al
   11df8:	74 15                	je     11e0f <load_elf_file+0xa3>
        log_printf("check elf indent failed.");
   11dfa:	83 ec 0c             	sub    $0xc,%esp
   11dfd:	68 91 8f 01 00       	push   $0x18f91
   11e02:	e8 1f 6c 00 00       	call   18a26 <log_printf>
   11e07:	83 c4 10             	add    $0x10,%esp
        goto load_failed;
   11e0a:	e9 55 01 00 00       	jmp    11f64 <load_elf_file+0x1f8>
    }

    if ((elf_hdr.e_type != ET_EXEC) || (elf_hdr.e_machine != ET_386) || (elf_hdr.e_entry == 0)) {
   11e0f:	0f b7 45 c0          	movzwl -0x40(%ebp),%eax
   11e13:	66 83 f8 02          	cmp    $0x2,%ax
   11e17:	75 11                	jne    11e2a <load_elf_file+0xbe>
   11e19:	0f b7 45 c2          	movzwl -0x3e(%ebp),%eax
   11e1d:	66 83 f8 03          	cmp    $0x3,%ax
   11e21:	75 07                	jne    11e2a <load_elf_file+0xbe>
   11e23:	8b 45 c8             	mov    -0x38(%ebp),%eax
   11e26:	85 c0                	test   %eax,%eax
   11e28:	75 15                	jne    11e3f <load_elf_file+0xd3>
        log_printf("check elf type or entry failed.");
   11e2a:	83 ec 0c             	sub    $0xc,%esp
   11e2d:	68 ac 8f 01 00       	push   $0x18fac
   11e32:	e8 ef 6b 00 00       	call   18a26 <log_printf>
   11e37:	83 c4 10             	add    $0x10,%esp
        goto load_failed;
   11e3a:	e9 25 01 00 00       	jmp    11f64 <load_elf_file+0x1f8>
    }

    if ((elf_hdr.e_phentsize == 0) || (elf_hdr.e_phoff == 0)) {
   11e3f:	0f b7 45 da          	movzwl -0x26(%ebp),%eax
   11e43:	66 85 c0             	test   %ax,%ax
   11e46:	74 07                	je     11e4f <load_elf_file+0xe3>
   11e48:	8b 45 cc             	mov    -0x34(%ebp),%eax
   11e4b:	85 c0                	test   %eax,%eax
   11e4d:	75 15                	jne    11e64 <load_elf_file+0xf8>
        log_printf("none programe header");
   11e4f:	83 ec 0c             	sub    $0xc,%esp
   11e52:	68 cc 8f 01 00       	push   $0x18fcc
   11e57:	e8 ca 6b 00 00       	call   18a26 <log_printf>
   11e5c:	83 c4 10             	add    $0x10,%esp
        goto load_failed;
   11e5f:	e9 00 01 00 00       	jmp    11f64 <load_elf_file+0x1f8>
    }

    uint32_t e_phoff = elf_hdr.e_phoff;
   11e64:	8b 45 cc             	mov    -0x34(%ebp),%eax
   11e67:	89 45 f4             	mov    %eax,-0xc(%ebp)
    for (int i = 0; i < elf_hdr.e_phnum; i++, e_phoff += elf_hdr.e_phentsize) {
   11e6a:	c7 45 f0 00 00 00 00 	movl   $0x0,-0x10(%ebp)
   11e71:	e9 cb 00 00 00       	jmp    11f41 <load_elf_file+0x1d5>
        if (sys_lseek(file, e_phoff, 0) < 0) {
   11e76:	8b 45 f4             	mov    -0xc(%ebp),%eax
   11e79:	83 ec 04             	sub    $0x4,%esp
   11e7c:	6a 00                	push   $0x0
   11e7e:	50                   	push   %eax
   11e7f:	ff 75 ec             	pushl  -0x14(%ebp)
   11e82:	e8 ea 59 00 00       	call   17871 <sys_lseek>
   11e87:	83 c4 10             	add    $0x10,%esp
   11e8a:	85 c0                	test   %eax,%eax
   11e8c:	79 15                	jns    11ea3 <load_elf_file+0x137>
            log_printf("read file failed");
   11e8e:	83 ec 0c             	sub    $0xc,%esp
   11e91:	68 51 8f 01 00       	push   $0x18f51
   11e96:	e8 8b 6b 00 00       	call   18a26 <log_printf>
   11e9b:	83 c4 10             	add    $0x10,%esp
            goto load_failed;
   11e9e:	e9 c1 00 00 00       	jmp    11f64 <load_elf_file+0x1f8>
        }

        cnt = sys_read(file, (char *)&elf_phdr, sizeof(Elf32_Phdr));
   11ea3:	83 ec 04             	sub    $0x4,%esp
   11ea6:	6a 20                	push   $0x20
   11ea8:	8d 45 90             	lea    -0x70(%ebp),%eax
   11eab:	50                   	push   %eax
   11eac:	ff 75 ec             	pushl  -0x14(%ebp)
   11eaf:	e8 34 58 00 00       	call   176e8 <sys_read>
   11eb4:	83 c4 10             	add    $0x10,%esp
   11eb7:	89 45 e8             	mov    %eax,-0x18(%ebp)
        if (cnt < sizeof(Elf32_Phdr)) {
   11eba:	8b 45 e8             	mov    -0x18(%ebp),%eax
   11ebd:	83 f8 1f             	cmp    $0x1f,%eax
   11ec0:	77 15                	ja     11ed7 <load_elf_file+0x16b>
            log_printf("read file failed");
   11ec2:	83 ec 0c             	sub    $0xc,%esp
   11ec5:	68 51 8f 01 00       	push   $0x18f51
   11eca:	e8 57 6b 00 00       	call   18a26 <log_printf>
   11ecf:	83 c4 10             	add    $0x10,%esp
            goto load_failed;
   11ed2:	e9 8d 00 00 00       	jmp    11f64 <load_elf_file+0x1f8>
        }

        if ((elf_phdr.p_type != PT_LOAD) || (elf_phdr.p_vaddr < MEMORY_TASK_BASE)) {
   11ed7:	8b 45 90             	mov    -0x70(%ebp),%eax
   11eda:	83 f8 01             	cmp    $0x1,%eax
   11edd:	75 53                	jne    11f32 <load_elf_file+0x1c6>
   11edf:	8b 45 98             	mov    -0x68(%ebp),%eax
   11ee2:	85 c0                	test   %eax,%eax
   11ee4:	79 4c                	jns    11f32 <load_elf_file+0x1c6>
           continue;
        }

        int err = load_phdr(file, &elf_phdr, page_dir);
   11ee6:	83 ec 04             	sub    $0x4,%esp
   11ee9:	ff 75 10             	pushl  0x10(%ebp)
   11eec:	8d 45 90             	lea    -0x70(%ebp),%eax
   11eef:	50                   	push   %eax
   11ef0:	ff 75 ec             	pushl  -0x14(%ebp)
   11ef3:	e8 4b fd ff ff       	call   11c43 <load_phdr>
   11ef8:	83 c4 10             	add    $0x10,%esp
   11efb:	89 45 e4             	mov    %eax,-0x1c(%ebp)
        if (err < 0) {
   11efe:	83 7d e4 00          	cmpl   $0x0,-0x1c(%ebp)
   11f02:	79 12                	jns    11f16 <load_elf_file+0x1aa>
            log_printf("load program hdr failed");
   11f04:	83 ec 0c             	sub    $0xc,%esp
   11f07:	68 e1 8f 01 00       	push   $0x18fe1
   11f0c:	e8 15 6b 00 00       	call   18a26 <log_printf>
   11f11:	83 c4 10             	add    $0x10,%esp
            goto load_failed;
   11f14:	eb 4e                	jmp    11f64 <load_elf_file+0x1f8>
        }

        task->heap_start = elf_phdr.p_vaddr + elf_phdr.p_memsz;
   11f16:	8b 55 98             	mov    -0x68(%ebp),%edx
   11f19:	8b 45 a4             	mov    -0x5c(%ebp),%eax
   11f1c:	01 c2                	add    %eax,%edx
   11f1e:	8b 45 08             	mov    0x8(%ebp),%eax
   11f21:	89 50 2c             	mov    %edx,0x2c(%eax)
        task->heap_end = task->heap_start;
   11f24:	8b 45 08             	mov    0x8(%ebp),%eax
   11f27:	8b 50 2c             	mov    0x2c(%eax),%edx
   11f2a:	8b 45 08             	mov    0x8(%ebp),%eax
   11f2d:	89 50 30             	mov    %edx,0x30(%eax)
   11f30:	eb 01                	jmp    11f33 <load_elf_file+0x1c7>
           continue;
   11f32:	90                   	nop
    for (int i = 0; i < elf_hdr.e_phnum; i++, e_phoff += elf_hdr.e_phentsize) {
   11f33:	83 45 f0 01          	addl   $0x1,-0x10(%ebp)
   11f37:	0f b7 45 da          	movzwl -0x26(%ebp),%eax
   11f3b:	0f b7 c0             	movzwl %ax,%eax
   11f3e:	01 45 f4             	add    %eax,-0xc(%ebp)
   11f41:	0f b7 45 dc          	movzwl -0x24(%ebp),%eax
   11f45:	0f b7 c0             	movzwl %ax,%eax
   11f48:	39 45 f0             	cmp    %eax,-0x10(%ebp)
   11f4b:	0f 8c 25 ff ff ff    	jl     11e76 <load_elf_file+0x10a>
   }

    sys_close(file);
   11f51:	83 ec 0c             	sub    $0xc,%esp
   11f54:	ff 75 ec             	pushl  -0x14(%ebp)
   11f57:	e8 aa 59 00 00       	call   17906 <sys_close>
   11f5c:	83 c4 10             	add    $0x10,%esp
    return elf_hdr.e_entry;
   11f5f:	8b 45 c8             	mov    -0x38(%ebp),%eax
   11f62:	eb 19                	jmp    11f7d <load_elf_file+0x211>

load_failed:
    if (file >= 0) {
   11f64:	83 7d ec 00          	cmpl   $0x0,-0x14(%ebp)
   11f68:	78 0e                	js     11f78 <load_elf_file+0x20c>
        sys_close(file);
   11f6a:	83 ec 0c             	sub    $0xc,%esp
   11f6d:	ff 75 ec             	pushl  -0x14(%ebp)
   11f70:	e8 91 59 00 00       	call   17906 <sys_close>
   11f75:	83 c4 10             	add    $0x10,%esp
    }

    return 0;
   11f78:	b8 00 00 00 00       	mov    $0x0,%eax
}
   11f7d:	c9                   	leave  
   11f7e:	c3                   	ret    

00011f7f <copy_args>:

static int copy_args (char * to, uint32_t page_dir, int argc, char **argv) {
   11f7f:	55                   	push   %ebp
   11f80:	89 e5                	mov    %esp,%ebp
   11f82:	83 ec 38             	sub    $0x38,%esp
    task_args_t task_args;
    task_args.argc = argc;
   11f85:	8b 45 10             	mov    0x10(%ebp),%eax
   11f88:	89 45 d8             	mov    %eax,-0x28(%ebp)
    task_args.argv = (char **)(to + sizeof(task_args_t));
   11f8b:	8b 45 08             	mov    0x8(%ebp),%eax
   11f8e:	83 c0 0c             	add    $0xc,%eax
   11f91:	89 45 dc             	mov    %eax,-0x24(%ebp)

    char * dest_arg = to + sizeof(task_args_t) + sizeof(char *) * (argc + 1);   
   11f94:	8b 45 10             	mov    0x10(%ebp),%eax
   11f97:	83 c0 04             	add    $0x4,%eax
   11f9a:	8d 14 85 00 00 00 00 	lea    0x0(,%eax,4),%edx
   11fa1:	8b 45 08             	mov    0x8(%ebp),%eax
   11fa4:	01 d0                	add    %edx,%eax
   11fa6:	89 45 f4             	mov    %eax,-0xc(%ebp)
    
    char ** dest_argv_tb = (char **)memory_get_paddr(page_dir, (uint32_t)(to + sizeof(task_args_t)));
   11fa9:	8b 45 08             	mov    0x8(%ebp),%eax
   11fac:	83 c0 0c             	add    $0xc,%eax
   11faf:	83 ec 08             	sub    $0x8,%esp
   11fb2:	50                   	push   %eax
   11fb3:	ff 75 0c             	pushl  0xc(%ebp)
   11fb6:	e8 dd ea ff ff       	call   10a98 <memory_get_paddr>
   11fbb:	83 c4 10             	add    $0x10,%esp
   11fbe:	89 45 ec             	mov    %eax,-0x14(%ebp)
    ASSERT(dest_argv_tb != 0);
   11fc1:	83 7d ec 00          	cmpl   $0x0,-0x14(%ebp)
   11fc5:	75 1c                	jne    11fe3 <copy_args+0x64>
   11fc7:	68 f9 8f 01 00       	push   $0x18ff9
   11fcc:	68 3c 90 01 00       	push   $0x1903c
   11fd1:	68 29 02 00 00       	push   $0x229
   11fd6:	68 9c 8e 01 00       	push   $0x18e9c
   11fdb:	e8 e9 67 00 00       	call   187c9 <panic>
   11fe0:	83 c4 10             	add    $0x10,%esp

    for (int i = 0; i < argc; i++) {
   11fe3:	c7 45 f0 00 00 00 00 	movl   $0x0,-0x10(%ebp)
   11fea:	e9 82 00 00 00       	jmp    12071 <copy_args+0xf2>
        char * from = argv[i];
   11fef:	8b 45 f0             	mov    -0x10(%ebp),%eax
   11ff2:	8d 14 85 00 00 00 00 	lea    0x0(,%eax,4),%edx
   11ff9:	8b 45 14             	mov    0x14(%ebp),%eax
   11ffc:	01 d0                	add    %edx,%eax
   11ffe:	8b 00                	mov    (%eax),%eax
   12000:	89 45 e8             	mov    %eax,-0x18(%ebp)
        int len = kernel_strlen(from) + 1;   
   12003:	83 ec 0c             	sub    $0xc,%esp
   12006:	ff 75 e8             	pushl  -0x18(%ebp)
   12009:	e8 66 63 00 00       	call   18374 <kernel_strlen>
   1200e:	83 c4 10             	add    $0x10,%esp
   12011:	83 c0 01             	add    $0x1,%eax
   12014:	89 45 e4             	mov    %eax,-0x1c(%ebp)
        int err = memory_copy_uvm_data((uint32_t)dest_arg, page_dir, (uint32_t)from, len);
   12017:	8b 4d e4             	mov    -0x1c(%ebp),%ecx
   1201a:	8b 55 e8             	mov    -0x18(%ebp),%edx
   1201d:	8b 45 f4             	mov    -0xc(%ebp),%eax
   12020:	51                   	push   %ecx
   12021:	52                   	push   %edx
   12022:	ff 75 0c             	pushl  0xc(%ebp)
   12025:	50                   	push   %eax
   12026:	e8 b3 ea ff ff       	call   10ade <memory_copy_uvm_data>
   1202b:	83 c4 10             	add    $0x10,%esp
   1202e:	89 45 e0             	mov    %eax,-0x20(%ebp)
        ASSERT(err >= 0);
   12031:	83 7d e0 00          	cmpl   $0x0,-0x20(%ebp)
   12035:	79 1c                	jns    12053 <copy_args+0xd4>
   12037:	68 0b 90 01 00       	push   $0x1900b
   1203c:	68 3c 90 01 00       	push   $0x1903c
   12041:	68 2f 02 00 00       	push   $0x22f
   12046:	68 9c 8e 01 00       	push   $0x18e9c
   1204b:	e8 79 67 00 00       	call   187c9 <panic>
   12050:	83 c4 10             	add    $0x10,%esp

        dest_argv_tb[i] = dest_arg;
   12053:	8b 45 f0             	mov    -0x10(%ebp),%eax
   12056:	8d 14 85 00 00 00 00 	lea    0x0(,%eax,4),%edx
   1205d:	8b 45 ec             	mov    -0x14(%ebp),%eax
   12060:	01 c2                	add    %eax,%edx
   12062:	8b 45 f4             	mov    -0xc(%ebp),%eax
   12065:	89 02                	mov    %eax,(%edx)

        dest_arg += len;
   12067:	8b 45 e4             	mov    -0x1c(%ebp),%eax
   1206a:	01 45 f4             	add    %eax,-0xc(%ebp)
    for (int i = 0; i < argc; i++) {
   1206d:	83 45 f0 01          	addl   $0x1,-0x10(%ebp)
   12071:	8b 45 f0             	mov    -0x10(%ebp),%eax
   12074:	3b 45 10             	cmp    0x10(%ebp),%eax
   12077:	0f 8c 72 ff ff ff    	jl     11fef <copy_args+0x70>
    }

    if (argc) {
   1207d:	83 7d 10 00          	cmpl   $0x0,0x10(%ebp)
   12081:	74 15                	je     12098 <copy_args+0x119>
        dest_argv_tb[argc] = '\0';
   12083:	8b 45 10             	mov    0x10(%ebp),%eax
   12086:	8d 14 85 00 00 00 00 	lea    0x0(,%eax,4),%edx
   1208d:	8b 45 ec             	mov    -0x14(%ebp),%eax
   12090:	01 d0                	add    %edx,%eax
   12092:	c7 00 00 00 00 00    	movl   $0x0,(%eax)
    }

    return memory_copy_uvm_data((uint32_t)to, page_dir, (uint32_t)&task_args, sizeof(task_args_t));
   12098:	8d 55 d4             	lea    -0x2c(%ebp),%edx
   1209b:	8b 45 08             	mov    0x8(%ebp),%eax
   1209e:	6a 0c                	push   $0xc
   120a0:	52                   	push   %edx
   120a1:	ff 75 0c             	pushl  0xc(%ebp)
   120a4:	50                   	push   %eax
   120a5:	e8 34 ea ff ff       	call   10ade <memory_copy_uvm_data>
   120aa:	83 c4 10             	add    $0x10,%esp
}
   120ad:	c9                   	leave  
   120ae:	c3                   	ret    

000120af <sys_execve>:

int sys_execve(char *name, char **argv, char **env) {
   120af:	55                   	push   %ebp
   120b0:	89 e5                	mov    %esp,%ebp
   120b2:	83 ec 28             	sub    $0x28,%esp
    task_t * task = task_current();
   120b5:	e8 4f f6 ff ff       	call   11709 <task_current>
   120ba:	89 45 f4             	mov    %eax,-0xc(%ebp)

    kernel_strncpy(task->name, get_file_name(name), TASK_NAME_SIZE);
   120bd:	83 ec 0c             	sub    $0xc,%esp
   120c0:	ff 75 08             	pushl  0x8(%ebp)
   120c3:	e8 af 61 00 00       	call   18277 <get_file_name>
   120c8:	83 c4 10             	add    $0x10,%esp
   120cb:	89 c2                	mov    %eax,%edx
   120cd:	8b 45 f4             	mov    -0xc(%ebp),%eax
   120d0:	83 c0 04             	add    $0x4,%eax
   120d3:	83 ec 04             	sub    $0x4,%esp
   120d6:	6a 20                	push   $0x20
   120d8:	52                   	push   %edx
   120d9:	50                   	push   %eax
   120da:	e8 25 62 00 00       	call   18304 <kernel_strncpy>
   120df:	83 c4 10             	add    $0x10,%esp

    uint32_t old_page_dir = task->tss.cr3;
   120e2:	8b 45 f4             	mov    -0xc(%ebp),%eax
   120e5:	8b 80 60 02 00 00    	mov    0x260(%eax),%eax
   120eb:	89 45 f0             	mov    %eax,-0x10(%ebp)
    uint32_t new_page_dir = memory_create_uvm();
   120ee:	e8 bc e6 ff ff       	call   107af <memory_create_uvm>
   120f3:	89 45 ec             	mov    %eax,-0x14(%ebp)
    if (!new_page_dir) {
   120f6:	83 7d ec 00          	cmpl   $0x0,-0x14(%ebp)
   120fa:	0f 84 2d 01 00 00    	je     1222d <sys_execve+0x17e>
        goto exec_failed;
    }

    uint32_t entry = load_elf_file(task, name, new_page_dir);    
   12100:	83 ec 04             	sub    $0x4,%esp
   12103:	ff 75 ec             	pushl  -0x14(%ebp)
   12106:	ff 75 08             	pushl  0x8(%ebp)
   12109:	ff 75 f4             	pushl  -0xc(%ebp)
   1210c:	e8 5b fc ff ff       	call   11d6c <load_elf_file>
   12111:	83 c4 10             	add    $0x10,%esp
   12114:	89 45 e8             	mov    %eax,-0x18(%ebp)
    if (entry == 0) {
   12117:	83 7d e8 00          	cmpl   $0x0,-0x18(%ebp)
   1211b:	0f 84 0f 01 00 00    	je     12230 <sys_execve+0x181>
        goto exec_failed;
    }

    uint32_t stack_top = MEM_TASK_STACK_TOP - MEM_TASK_ARG_SIZE;    
   12121:	c7 45 e4 00 c0 ff df 	movl   $0xdfffc000,-0x1c(%ebp)
    int err = memory_alloc_for_page_dir(new_page_dir,
   12128:	6a 07                	push   $0x7
   1212a:	68 00 40 1f 00       	push   $0x1f4000
   1212f:	68 00 c0 e0 df       	push   $0xdfe0c000
   12134:	ff 75 ec             	pushl  -0x14(%ebp)
   12137:	e8 25 ea ff ff       	call   10b61 <memory_alloc_for_page_dir>
   1213c:	83 c4 10             	add    $0x10,%esp
   1213f:	89 45 e0             	mov    %eax,-0x20(%ebp)
                            MEM_TASK_STACK_TOP - MEM_TASK_STACK_SIZE,
                            MEM_TASK_STACK_SIZE, PTE_P | PTE_U | PTE_W);
    if (err < 0) {
   12142:	83 7d e0 00          	cmpl   $0x0,-0x20(%ebp)
   12146:	0f 88 e7 00 00 00    	js     12233 <sys_execve+0x184>
        goto exec_failed;
    }

    int argc = strings_count(argv);
   1214c:	83 ec 0c             	sub    $0xc,%esp
   1214f:	ff 75 0c             	pushl  0xc(%ebp)
   12152:	e8 f3 60 00 00       	call   1824a <strings_count>
   12157:	83 c4 10             	add    $0x10,%esp
   1215a:	89 45 dc             	mov    %eax,-0x24(%ebp)
    err = copy_args((char *)stack_top, new_page_dir, argc, argv);
   1215d:	8b 45 e4             	mov    -0x1c(%ebp),%eax
   12160:	ff 75 0c             	pushl  0xc(%ebp)
   12163:	ff 75 dc             	pushl  -0x24(%ebp)
   12166:	ff 75 ec             	pushl  -0x14(%ebp)
   12169:	50                   	push   %eax
   1216a:	e8 10 fe ff ff       	call   11f7f <copy_args>
   1216f:	83 c4 10             	add    $0x10,%esp
   12172:	89 45 e0             	mov    %eax,-0x20(%ebp)
    if (err < 0) {
   12175:	83 7d e0 00          	cmpl   $0x0,-0x20(%ebp)
   12179:	0f 88 b7 00 00 00    	js     12236 <sys_execve+0x187>
        goto exec_failed;
    }

    syscall_frame_t * frame = (syscall_frame_t *)(task->tss.esp0 - sizeof(syscall_frame_t));
   1217f:	8b 45 f4             	mov    -0xc(%ebp),%eax
   12182:	8b 80 48 02 00 00    	mov    0x248(%eax),%eax
   12188:	83 e8 58             	sub    $0x58,%eax
   1218b:	89 45 d8             	mov    %eax,-0x28(%ebp)
    frame->eip = entry;
   1218e:	8b 55 e8             	mov    -0x18(%ebp),%edx
   12191:	8b 45 d8             	mov    -0x28(%ebp),%eax
   12194:	89 50 34             	mov    %edx,0x34(%eax)
    frame->eax = frame->ebx = frame->ecx = frame->edx = 0;
   12197:	8b 45 d8             	mov    -0x28(%ebp),%eax
   1219a:	c7 40 28 00 00 00 00 	movl   $0x0,0x28(%eax)
   121a1:	8b 45 d8             	mov    -0x28(%ebp),%eax
   121a4:	8b 50 28             	mov    0x28(%eax),%edx
   121a7:	8b 45 d8             	mov    -0x28(%ebp),%eax
   121aa:	89 50 2c             	mov    %edx,0x2c(%eax)
   121ad:	8b 45 d8             	mov    -0x28(%ebp),%eax
   121b0:	8b 50 2c             	mov    0x2c(%eax),%edx
   121b3:	8b 45 d8             	mov    -0x28(%ebp),%eax
   121b6:	89 50 24             	mov    %edx,0x24(%eax)
   121b9:	8b 45 d8             	mov    -0x28(%ebp),%eax
   121bc:	8b 50 24             	mov    0x24(%eax),%edx
   121bf:	8b 45 d8             	mov    -0x28(%ebp),%eax
   121c2:	89 50 30             	mov    %edx,0x30(%eax)
    frame->esi = frame->edi = frame->ebp = 0;
   121c5:	8b 45 d8             	mov    -0x28(%ebp),%eax
   121c8:	c7 40 1c 00 00 00 00 	movl   $0x0,0x1c(%eax)
   121cf:	8b 45 d8             	mov    -0x28(%ebp),%eax
   121d2:	8b 50 1c             	mov    0x1c(%eax),%edx
   121d5:	8b 45 d8             	mov    -0x28(%ebp),%eax
   121d8:	89 50 14             	mov    %edx,0x14(%eax)
   121db:	8b 45 d8             	mov    -0x28(%ebp),%eax
   121de:	8b 50 14             	mov    0x14(%eax),%edx
   121e1:	8b 45 d8             	mov    -0x28(%ebp),%eax
   121e4:	89 50 18             	mov    %edx,0x18(%eax)
    frame->eflags = EFLAGS_DEFAULT| EFLAGS_IF;  
   121e7:	8b 45 d8             	mov    -0x28(%ebp),%eax
   121ea:	c7 00 02 02 00 00    	movl   $0x202,(%eax)

    frame->esp = stack_top - sizeof(uint32_t)*SYSCALL_PARAM_COUNT;
   121f0:	8b 45 e4             	mov    -0x1c(%ebp),%eax
   121f3:	83 e8 14             	sub    $0x14,%eax
   121f6:	89 c2                	mov    %eax,%edx
   121f8:	8b 45 d8             	mov    -0x28(%ebp),%eax
   121fb:	89 50 50             	mov    %edx,0x50(%eax)

    task->tss.cr3 = new_page_dir;
   121fe:	8b 45 f4             	mov    -0xc(%ebp),%eax
   12201:	8b 55 ec             	mov    -0x14(%ebp),%edx
   12204:	89 90 60 02 00 00    	mov    %edx,0x260(%eax)
    mmu_set_page_dir(new_page_dir);   
   1220a:	83 ec 0c             	sub    $0xc,%esp
   1220d:	ff 75 ec             	pushl  -0x14(%ebp)
   12210:	e8 06 ee ff ff       	call   1101b <mmu_set_page_dir>
   12215:	83 c4 10             	add    $0x10,%esp

    memory_destroy_uvm(old_page_dir);            
   12218:	83 ec 0c             	sub    $0xc,%esp
   1221b:	ff 75 f0             	pushl  -0x10(%ebp)
   1221e:	e8 11 e6 ff ff       	call   10834 <memory_destroy_uvm>
   12223:	83 c4 10             	add    $0x10,%esp

    return  0;
   12226:	b8 00 00 00 00       	mov    $0x0,%eax
   1222b:	eb 3d                	jmp    1226a <sys_execve+0x1bb>
        goto exec_failed;
   1222d:	90                   	nop
   1222e:	eb 07                	jmp    12237 <sys_execve+0x188>
        goto exec_failed;
   12230:	90                   	nop
   12231:	eb 04                	jmp    12237 <sys_execve+0x188>
        goto exec_failed;
   12233:	90                   	nop
   12234:	eb 01                	jmp    12237 <sys_execve+0x188>
        goto exec_failed;
   12236:	90                   	nop

exec_failed:   
    if (new_page_dir) {
   12237:	83 7d ec 00          	cmpl   $0x0,-0x14(%ebp)
   1223b:	74 28                	je     12265 <sys_execve+0x1b6>
        
        task->tss.cr3 = old_page_dir;
   1223d:	8b 45 f4             	mov    -0xc(%ebp),%eax
   12240:	8b 55 f0             	mov    -0x10(%ebp),%edx
   12243:	89 90 60 02 00 00    	mov    %edx,0x260(%eax)
        mmu_set_page_dir(old_page_dir);
   12249:	83 ec 0c             	sub    $0xc,%esp
   1224c:	ff 75 f0             	pushl  -0x10(%ebp)
   1224f:	e8 c7 ed ff ff       	call   1101b <mmu_set_page_dir>
   12254:	83 c4 10             	add    $0x10,%esp
        memory_destroy_uvm(new_page_dir);
   12257:	83 ec 0c             	sub    $0xc,%esp
   1225a:	ff 75 ec             	pushl  -0x14(%ebp)
   1225d:	e8 d2 e5 ff ff       	call   10834 <memory_destroy_uvm>
   12262:	83 c4 10             	add    $0x10,%esp
    }

    return -1;
   12265:	b8 ff ff ff ff       	mov    $0xffffffff,%eax
}
   1226a:	c9                   	leave  
   1226b:	c3                   	ret    

0001226c <sys_getpid>:

int sys_getpid (void) {
   1226c:	55                   	push   %ebp
   1226d:	89 e5                	mov    %esp,%ebp
   1226f:	83 ec 10             	sub    $0x10,%esp
    task_t * curr_task = task_current();
   12272:	e8 92 f4 ff ff       	call   11709 <task_current>
   12277:	89 45 fc             	mov    %eax,-0x4(%ebp)
    return curr_task->pid;
   1227a:	8b 45 fc             	mov    -0x4(%ebp),%eax
   1227d:	8b 40 24             	mov    0x24(%eax),%eax
}
   12280:	c9                   	leave  
   12281:	c3                   	ret    

00012282 <sys_wait>:



int sys_wait(int* status) {
   12282:	55                   	push   %ebp
   12283:	89 e5                	mov    %esp,%ebp
   12285:	83 ec 28             	sub    $0x28,%esp
    task_t * curr_task = task_current();
   12288:	e8 7c f4 ff ff       	call   11709 <task_current>
   1228d:	89 45 f0             	mov    %eax,-0x10(%ebp)

    for (;;) {
       
        mutex_lock(&task_table_mutex);
   12290:	83 ec 0c             	sub    $0xc,%esp
   12293:	68 c0 49 03 00       	push   $0x349c0
   12298:	e8 c2 5a 00 00       	call   17d5f <mutex_lock>
   1229d:	83 c4 10             	add    $0x10,%esp
        for (int i = 0; i < TASK_NR; i++) {
   122a0:	c7 45 f4 00 00 00 00 	movl   $0x0,-0xc(%ebp)
   122a7:	e9 98 00 00 00       	jmp    12344 <sys_wait+0xc2>
            task_t * task = task_table + i;
   122ac:	8b 45 f4             	mov    -0xc(%ebp),%eax
   122af:	69 c0 c8 02 00 00    	imul   $0x2c8,%eax,%eax
   122b5:	05 c0 e5 01 00       	add    $0x1e5c0,%eax
   122ba:	89 45 e8             	mov    %eax,-0x18(%ebp)
            if (task->parent != curr_task) {
   122bd:	8b 45 e8             	mov    -0x18(%ebp),%eax
   122c0:	8b 40 28             	mov    0x28(%eax),%eax
   122c3:	39 45 f0             	cmp    %eax,-0x10(%ebp)
   122c6:	75 77                	jne    1233f <sys_wait+0xbd>
                continue;
            }

            if (task->state == TASK_ZOMBIE) {
   122c8:	8b 45 e8             	mov    -0x18(%ebp),%eax
   122cb:	8b 00                	mov    (%eax),%eax
   122cd:	83 f8 05             	cmp    $0x5,%eax
   122d0:	75 6e                	jne    12340 <sys_wait+0xbe>
                int pid = task->pid;
   122d2:	8b 45 e8             	mov    -0x18(%ebp),%eax
   122d5:	8b 40 24             	mov    0x24(%eax),%eax
   122d8:	89 45 e4             	mov    %eax,-0x1c(%ebp)

                *status = task->status;
   122db:	8b 45 e8             	mov    -0x18(%ebp),%eax
   122de:	8b 50 34             	mov    0x34(%eax),%edx
   122e1:	8b 45 08             	mov    0x8(%ebp),%eax
   122e4:	89 10                	mov    %edx,(%eax)

                memory_destroy_uvm(task->tss.cr3);
   122e6:	8b 45 e8             	mov    -0x18(%ebp),%eax
   122e9:	8b 80 60 02 00 00    	mov    0x260(%eax),%eax
   122ef:	83 ec 0c             	sub    $0xc,%esp
   122f2:	50                   	push   %eax
   122f3:	e8 3c e5 ff ff       	call   10834 <memory_destroy_uvm>
   122f8:	83 c4 10             	add    $0x10,%esp
                memory_free_page(task->tss.esp0 - MEM_PAGE_SIZE);
   122fb:	8b 45 e8             	mov    -0x18(%ebp),%eax
   122fe:	8b 80 48 02 00 00    	mov    0x248(%eax),%eax
   12304:	2d 00 10 00 00       	sub    $0x1000,%eax
   12309:	83 ec 0c             	sub    $0xc,%esp
   1230c:	50                   	push   %eax
   1230d:	e8 77 e9 ff ff       	call   10c89 <memory_free_page>
   12312:	83 c4 10             	add    $0x10,%esp
                kernel_memset(task, 0, sizeof(task_t));
   12315:	83 ec 04             	sub    $0x4,%esp
   12318:	68 c8 02 00 00       	push   $0x2c8
   1231d:	6a 00                	push   $0x0
   1231f:	ff 75 e8             	pushl  -0x18(%ebp)
   12322:	e8 55 61 00 00       	call   1847c <kernel_memset>
   12327:	83 c4 10             	add    $0x10,%esp

                mutex_unlock(&task_table_mutex);
   1232a:	83 ec 0c             	sub    $0xc,%esp
   1232d:	68 c0 49 03 00       	push   $0x349c0
   12332:	e8 bf 5a 00 00       	call   17df6 <mutex_unlock>
   12337:	83 c4 10             	add    $0x10,%esp
                return pid;
   1233a:	8b 45 e4             	mov    -0x1c(%ebp),%eax
   1233d:	eb 56                	jmp    12395 <sys_wait+0x113>
                continue;
   1233f:	90                   	nop
        for (int i = 0; i < TASK_NR; i++) {
   12340:	83 45 f4 01          	addl   $0x1,-0xc(%ebp)
   12344:	83 7d f4 7f          	cmpl   $0x7f,-0xc(%ebp)
   12348:	0f 8e 5e ff ff ff    	jle    122ac <sys_wait+0x2a>
            }
        }
        mutex_unlock(&task_table_mutex);
   1234e:	83 ec 0c             	sub    $0xc,%esp
   12351:	68 c0 49 03 00       	push   $0x349c0
   12356:	e8 9b 5a 00 00       	call   17df6 <mutex_unlock>
   1235b:	83 c4 10             	add    $0x10,%esp

        irq_state_t state = irq_enter_protection();
   1235e:	e8 ab 0d 00 00       	call   1310e <irq_enter_protection>
   12363:	89 45 ec             	mov    %eax,-0x14(%ebp)
        task_set_block(curr_task);
   12366:	83 ec 0c             	sub    $0xc,%esp
   12369:	ff 75 f0             	pushl  -0x10(%ebp)
   1236c:	e8 ca f2 ff ff       	call   1163b <task_set_block>
   12371:	83 c4 10             	add    $0x10,%esp
        curr_task->state = TASK_WAITING;
   12374:	8b 45 f0             	mov    -0x10(%ebp),%eax
   12377:	c7 00 04 00 00 00    	movl   $0x4,(%eax)
        task_dispatch();
   1237d:	e8 9e f4 ff ff       	call   11820 <task_dispatch>
        irq_leave_protection(state);
   12382:	83 ec 0c             	sub    $0xc,%esp
   12385:	ff 75 ec             	pushl  -0x14(%ebp)
   12388:	e8 99 0d 00 00       	call   13126 <irq_leave_protection>
   1238d:	83 c4 10             	add    $0x10,%esp
    for (;;) {
   12390:	e9 fb fe ff ff       	jmp    12290 <sys_wait+0xe>
    }
}
   12395:	c9                   	leave  
   12396:	c3                   	ret    

00012397 <sys_exit>:

void sys_exit(int status) {
   12397:	55                   	push   %ebp
   12398:	89 e5                	mov    %esp,%ebp
   1239a:	83 ec 28             	sub    $0x28,%esp
    task_t * curr_task = task_current();
   1239d:	e8 67 f3 ff ff       	call   11709 <task_current>
   123a2:	89 45 e8             	mov    %eax,-0x18(%ebp)

    for (int fd = 0; fd < TASK_OFILE_NR; fd++) {
   123a5:	c7 45 f4 00 00 00 00 	movl   $0x0,-0xc(%ebp)
   123ac:	eb 39                	jmp    123e7 <sys_exit+0x50>
        file_t * file = curr_task->file_table[fd];
   123ae:	8b 45 e8             	mov    -0x18(%ebp),%eax
   123b1:	8b 55 f4             	mov    -0xc(%ebp),%edx
   123b4:	83 c2 10             	add    $0x10,%edx
   123b7:	8b 44 90 04          	mov    0x4(%eax,%edx,4),%eax
   123bb:	89 45 d8             	mov    %eax,-0x28(%ebp)
        if (file) {
   123be:	83 7d d8 00          	cmpl   $0x0,-0x28(%ebp)
   123c2:	74 1f                	je     123e3 <sys_exit+0x4c>
            sys_close(fd);
   123c4:	83 ec 0c             	sub    $0xc,%esp
   123c7:	ff 75 f4             	pushl  -0xc(%ebp)
   123ca:	e8 37 55 00 00       	call   17906 <sys_close>
   123cf:	83 c4 10             	add    $0x10,%esp
            curr_task->file_table[fd] = (file_t *)0;
   123d2:	8b 45 e8             	mov    -0x18(%ebp),%eax
   123d5:	8b 55 f4             	mov    -0xc(%ebp),%edx
   123d8:	83 c2 10             	add    $0x10,%edx
   123db:	c7 44 90 04 00 00 00 	movl   $0x0,0x4(%eax,%edx,4)
   123e2:	00 
    for (int fd = 0; fd < TASK_OFILE_NR; fd++) {
   123e3:	83 45 f4 01          	addl   $0x1,-0xc(%ebp)
   123e7:	83 7d f4 7f          	cmpl   $0x7f,-0xc(%ebp)
   123eb:	7e c1                	jle    123ae <sys_exit+0x17>
        }
    }

    int move_child = 0;
   123ed:	c7 45 f0 00 00 00 00 	movl   $0x0,-0x10(%ebp)

    mutex_lock(&task_table_mutex);
   123f4:	83 ec 0c             	sub    $0xc,%esp
   123f7:	68 c0 49 03 00       	push   $0x349c0
   123fc:	e8 5e 59 00 00       	call   17d5f <mutex_lock>
   12401:	83 c4 10             	add    $0x10,%esp
    for (int i = 0; i < TASK_OFILE_NR; i++) {
   12404:	c7 45 ec 00 00 00 00 	movl   $0x0,-0x14(%ebp)
   1240b:	eb 3b                	jmp    12448 <sys_exit+0xb1>
        task_t * task = task_table + i;
   1240d:	8b 45 ec             	mov    -0x14(%ebp),%eax
   12410:	69 c0 c8 02 00 00    	imul   $0x2c8,%eax,%eax
   12416:	05 c0 e5 01 00       	add    $0x1e5c0,%eax
   1241b:	89 45 dc             	mov    %eax,-0x24(%ebp)
        if (task->parent == curr_task) {
   1241e:	8b 45 dc             	mov    -0x24(%ebp),%eax
   12421:	8b 40 28             	mov    0x28(%eax),%eax
   12424:	39 45 e8             	cmp    %eax,-0x18(%ebp)
   12427:	75 1b                	jne    12444 <sys_exit+0xad>
            task->parent = &task_manager.first_task;
   12429:	8b 45 dc             	mov    -0x24(%ebp),%eax
   1242c:	c7 40 28 28 d0 01 00 	movl   $0x1d028,0x28(%eax)

            if (task->state == TASK_ZOMBIE) {
   12433:	8b 45 dc             	mov    -0x24(%ebp),%eax
   12436:	8b 00                	mov    (%eax),%eax
   12438:	83 f8 05             	cmp    $0x5,%eax
   1243b:	75 07                	jne    12444 <sys_exit+0xad>
                move_child = 1;
   1243d:	c7 45 f0 01 00 00 00 	movl   $0x1,-0x10(%ebp)
    for (int i = 0; i < TASK_OFILE_NR; i++) {
   12444:	83 45 ec 01          	addl   $0x1,-0x14(%ebp)
   12448:	83 7d ec 7f          	cmpl   $0x7f,-0x14(%ebp)
   1244c:	7e bf                	jle    1240d <sys_exit+0x76>
            }
        }
    }
    mutex_unlock(&task_table_mutex);
   1244e:	83 ec 0c             	sub    $0xc,%esp
   12451:	68 c0 49 03 00       	push   $0x349c0
   12456:	e8 9b 59 00 00       	call   17df6 <mutex_unlock>
   1245b:	83 c4 10             	add    $0x10,%esp

    irq_state_t state = irq_enter_protection();
   1245e:	e8 ab 0c 00 00       	call   1310e <irq_enter_protection>
   12463:	89 45 e4             	mov    %eax,-0x1c(%ebp)

    task_t * parent = curr_task->parent;
   12466:	8b 45 e8             	mov    -0x18(%ebp),%eax
   12469:	8b 40 28             	mov    0x28(%eax),%eax
   1246c:	89 45 e0             	mov    %eax,-0x20(%ebp)
    if (move_child && (parent != &task_manager.first_task)) { 
   1246f:	83 7d f0 00          	cmpl   $0x0,-0x10(%ebp)
   12473:	74 23                	je     12498 <sys_exit+0x101>
   12475:	81 7d e0 28 d0 01 00 	cmpl   $0x1d028,-0x20(%ebp)
   1247c:	74 1a                	je     12498 <sys_exit+0x101>
        if (task_manager.first_task.state == TASK_WAITING) {
   1247e:	a1 28 d0 01 00       	mov    0x1d028,%eax
   12483:	83 f8 04             	cmp    $0x4,%eax
   12486:	75 10                	jne    12498 <sys_exit+0x101>
            task_set_ready(&task_manager.first_task);
   12488:	83 ec 0c             	sub    $0xc,%esp
   1248b:	68 28 d0 01 00       	push   $0x1d028
   12490:	e8 72 f1 ff ff       	call   11607 <task_set_ready>
   12495:	83 c4 10             	add    $0x10,%esp
        }
    }

    if (parent->state == TASK_WAITING) {
   12498:	8b 45 e0             	mov    -0x20(%ebp),%eax
   1249b:	8b 00                	mov    (%eax),%eax
   1249d:	83 f8 04             	cmp    $0x4,%eax
   124a0:	75 12                	jne    124b4 <sys_exit+0x11d>
        task_set_ready(curr_task->parent);
   124a2:	8b 45 e8             	mov    -0x18(%ebp),%eax
   124a5:	8b 40 28             	mov    0x28(%eax),%eax
   124a8:	83 ec 0c             	sub    $0xc,%esp
   124ab:	50                   	push   %eax
   124ac:	e8 56 f1 ff ff       	call   11607 <task_set_ready>
   124b1:	83 c4 10             	add    $0x10,%esp
    }

    curr_task->status = status;
   124b4:	8b 45 e8             	mov    -0x18(%ebp),%eax
   124b7:	8b 55 08             	mov    0x8(%ebp),%edx
   124ba:	89 50 34             	mov    %edx,0x34(%eax)
    curr_task->state = TASK_ZOMBIE;
   124bd:	8b 45 e8             	mov    -0x18(%ebp),%eax
   124c0:	c7 00 05 00 00 00    	movl   $0x5,(%eax)
    task_set_block(curr_task);
   124c6:	83 ec 0c             	sub    $0xc,%esp
   124c9:	ff 75 e8             	pushl  -0x18(%ebp)
   124cc:	e8 6a f1 ff ff       	call   1163b <task_set_block>
   124d1:	83 c4 10             	add    $0x10,%esp
    task_dispatch();
   124d4:	e8 47 f3 ff ff       	call   11820 <task_dispatch>

    irq_leave_protection(state);
   124d9:	83 ec 0c             	sub    $0xc,%esp
   124dc:	ff 75 e4             	pushl  -0x1c(%ebp)
   124df:	e8 42 0c 00 00       	call   13126 <irq_leave_protection>
   124e4:	83 c4 10             	add    $0x10,%esp
}
   124e7:	90                   	nop
   124e8:	c9                   	leave  
   124e9:	c3                   	ret    

000124ea <lgdt>:
static inline void lgdt(uint32_t start, uint32_t size) {
   124ea:	55                   	push   %ebp
   124eb:	89 e5                	mov    %esp,%ebp
   124ed:	83 ec 10             	sub    $0x10,%esp
	gdt.start31_16 = start >> 16;
   124f0:	8b 45 08             	mov    0x8(%ebp),%eax
   124f3:	c1 e8 10             	shr    $0x10,%eax
   124f6:	66 89 45 fe          	mov    %ax,-0x2(%ebp)
	gdt.start15_0 = start & 0xFFFF;
   124fa:	8b 45 08             	mov    0x8(%ebp),%eax
   124fd:	66 89 45 fc          	mov    %ax,-0x4(%ebp)
	gdt.limit = size - 1;
   12501:	8b 45 0c             	mov    0xc(%ebp),%eax
   12504:	83 e8 01             	sub    $0x1,%eax
   12507:	66 89 45 fa          	mov    %ax,-0x6(%ebp)
	__asm__ __volatile__("lgdt %[g]"::[g]"m"(gdt));
   1250b:	0f 01 55 fa          	lgdtl  -0x6(%ebp)
}
   1250f:	90                   	nop
   12510:	c9                   	leave  
   12511:	c3                   	ret    

00012512 <far_jump>:
static inline void far_jump(uint32_t selector, uint32_t offset) {
   12512:	55                   	push   %ebp
   12513:	89 e5                	mov    %esp,%ebp
   12515:	83 ec 10             	sub    $0x10,%esp
	uint32_t addr[] = {offset, selector };
   12518:	8b 45 0c             	mov    0xc(%ebp),%eax
   1251b:	89 45 f8             	mov    %eax,-0x8(%ebp)
   1251e:	8b 45 08             	mov    0x8(%ebp),%eax
   12521:	89 45 fc             	mov    %eax,-0x4(%ebp)
	__asm__ __volatile__("ljmpl *(%[a])"::[a]"r"(addr));
   12524:	8d 45 f8             	lea    -0x8(%ebp),%eax
   12527:	ff 28                	ljmp   *(%eax)
}
   12529:	90                   	nop
   1252a:	c9                   	leave  
   1252b:	c3                   	ret    

0001252c <segment_desc_set>:

static segment_desc_t gdt_table[GDT_TABLE_SIZE];
static mutex_t mutex;


void segment_desc_set(int selector, uint32_t base, uint32_t limit, uint16_t attr) {
   1252c:	55                   	push   %ebp
   1252d:	89 e5                	mov    %esp,%ebp
   1252f:	83 ec 14             	sub    $0x14,%esp
   12532:	8b 45 14             	mov    0x14(%ebp),%eax
   12535:	66 89 45 ec          	mov    %ax,-0x14(%ebp)
    segment_desc_t * desc = gdt_table + (selector >> 3);
   12539:	8b 45 08             	mov    0x8(%ebp),%eax
   1253c:	c1 f8 03             	sar    $0x3,%eax
   1253f:	c1 e0 03             	shl    $0x3,%eax
   12542:	05 e0 49 03 00       	add    $0x349e0,%eax
   12547:	89 45 fc             	mov    %eax,-0x4(%ebp)

	if (limit > 0xfffff) {
   1254a:	81 7d 10 ff ff 0f 00 	cmpl   $0xfffff,0x10(%ebp)
   12551:	76 0f                	jbe    12562 <segment_desc_set+0x36>
		attr |= 0x8000;
   12553:	66 81 4d ec 00 80    	orw    $0x8000,-0x14(%ebp)
		limit /= 0x1000;
   12559:	8b 45 10             	mov    0x10(%ebp),%eax
   1255c:	c1 e8 0c             	shr    $0xc,%eax
   1255f:	89 45 10             	mov    %eax,0x10(%ebp)
	}
	desc->limit15_0 = limit & 0xffff;
   12562:	8b 45 10             	mov    0x10(%ebp),%eax
   12565:	89 c2                	mov    %eax,%edx
   12567:	8b 45 fc             	mov    -0x4(%ebp),%eax
   1256a:	66 89 10             	mov    %dx,(%eax)
	desc->base15_0 = base & 0xffff;
   1256d:	8b 45 0c             	mov    0xc(%ebp),%eax
   12570:	89 c2                	mov    %eax,%edx
   12572:	8b 45 fc             	mov    -0x4(%ebp),%eax
   12575:	66 89 50 02          	mov    %dx,0x2(%eax)
	desc->base23_16 = (base >> 16) & 0xff;
   12579:	8b 45 0c             	mov    0xc(%ebp),%eax
   1257c:	c1 e8 10             	shr    $0x10,%eax
   1257f:	89 c2                	mov    %eax,%edx
   12581:	8b 45 fc             	mov    -0x4(%ebp),%eax
   12584:	88 50 04             	mov    %dl,0x4(%eax)
	desc->attr = attr | (((limit >> 16) & 0xf) << 8);
   12587:	8b 45 10             	mov    0x10(%ebp),%eax
   1258a:	c1 e8 10             	shr    $0x10,%eax
   1258d:	c1 e0 08             	shl    $0x8,%eax
   12590:	66 25 00 0f          	and    $0xf00,%ax
   12594:	66 0b 45 ec          	or     -0x14(%ebp),%ax
   12598:	89 c2                	mov    %eax,%edx
   1259a:	8b 45 fc             	mov    -0x4(%ebp),%eax
   1259d:	66 89 50 05          	mov    %dx,0x5(%eax)
	desc->base31_24 = (base >> 24) & 0xff;
   125a1:	8b 45 0c             	mov    0xc(%ebp),%eax
   125a4:	c1 e8 18             	shr    $0x18,%eax
   125a7:	89 c2                	mov    %eax,%edx
   125a9:	8b 45 fc             	mov    -0x4(%ebp),%eax
   125ac:	88 50 07             	mov    %dl,0x7(%eax)
}
   125af:	90                   	nop
   125b0:	c9                   	leave  
   125b1:	c3                   	ret    

000125b2 <gate_desc_set>:


void gate_desc_set(gate_desc_t * desc, uint16_t selector, uint32_t offset, uint16_t attr) {
   125b2:	55                   	push   %ebp
   125b3:	89 e5                	mov    %esp,%ebp
   125b5:	83 ec 08             	sub    $0x8,%esp
   125b8:	8b 55 0c             	mov    0xc(%ebp),%edx
   125bb:	8b 45 14             	mov    0x14(%ebp),%eax
   125be:	66 89 55 fc          	mov    %dx,-0x4(%ebp)
   125c2:	66 89 45 f8          	mov    %ax,-0x8(%ebp)
	desc->offset15_0 = offset & 0xffff;
   125c6:	8b 45 10             	mov    0x10(%ebp),%eax
   125c9:	89 c2                	mov    %eax,%edx
   125cb:	8b 45 08             	mov    0x8(%ebp),%eax
   125ce:	66 89 10             	mov    %dx,(%eax)
	desc->selector = selector;
   125d1:	8b 45 08             	mov    0x8(%ebp),%eax
   125d4:	0f b7 55 fc          	movzwl -0x4(%ebp),%edx
   125d8:	66 89 50 02          	mov    %dx,0x2(%eax)
	desc->attr = attr;
   125dc:	8b 45 08             	mov    0x8(%ebp),%eax
   125df:	0f b7 55 f8          	movzwl -0x8(%ebp),%edx
   125e3:	66 89 50 04          	mov    %dx,0x4(%eax)
	desc->offset31_16 = (offset >> 16) & 0xffff;
   125e7:	8b 45 10             	mov    0x10(%ebp),%eax
   125ea:	c1 e8 10             	shr    $0x10,%eax
   125ed:	89 c2                	mov    %eax,%edx
   125ef:	8b 45 08             	mov    0x8(%ebp),%eax
   125f2:	66 89 50 06          	mov    %dx,0x6(%eax)
}
   125f6:	90                   	nop
   125f7:	c9                   	leave  
   125f8:	c3                   	ret    

000125f9 <gdt_free_sel>:

void gdt_free_sel (int sel) {
   125f9:	55                   	push   %ebp
   125fa:	89 e5                	mov    %esp,%ebp
   125fc:	83 ec 08             	sub    $0x8,%esp
    mutex_lock(&mutex);
   125ff:	83 ec 0c             	sub    $0xc,%esp
   12602:	68 e0 51 03 00       	push   $0x351e0
   12607:	e8 53 57 00 00       	call   17d5f <mutex_lock>
   1260c:	83 c4 10             	add    $0x10,%esp
    gdt_table[sel / sizeof(segment_desc_t)].attr = 0;
   1260f:	8b 45 08             	mov    0x8(%ebp),%eax
   12612:	c1 e8 03             	shr    $0x3,%eax
   12615:	66 c7 04 c5 e5 49 03 	movw   $0x0,0x349e5(,%eax,8)
   1261c:	00 00 00 
    mutex_unlock(&mutex);
   1261f:	83 ec 0c             	sub    $0xc,%esp
   12622:	68 e0 51 03 00       	push   $0x351e0
   12627:	e8 ca 57 00 00       	call   17df6 <mutex_unlock>
   1262c:	83 c4 10             	add    $0x10,%esp
}
   1262f:	90                   	nop
   12630:	c9                   	leave  
   12631:	c3                   	ret    

00012632 <gdt_alloc_desc>:


int gdt_alloc_desc (void) {
   12632:	55                   	push   %ebp
   12633:	89 e5                	mov    %esp,%ebp
   12635:	83 ec 18             	sub    $0x18,%esp
    int i;

    mutex_lock(&mutex);
   12638:	83 ec 0c             	sub    $0xc,%esp
   1263b:	68 e0 51 03 00       	push   $0x351e0
   12640:	e8 1a 57 00 00       	call   17d5f <mutex_lock>
   12645:	83 c4 10             	add    $0x10,%esp
    for (i = 1; i < GDT_TABLE_SIZE; i++) {
   12648:	c7 45 f4 01 00 00 00 	movl   $0x1,-0xc(%ebp)
   1264f:	eb 29                	jmp    1267a <gdt_alloc_desc+0x48>
        segment_desc_t * desc = gdt_table + i;
   12651:	8b 45 f4             	mov    -0xc(%ebp),%eax
   12654:	c1 e0 03             	shl    $0x3,%eax
   12657:	05 e0 49 03 00       	add    $0x349e0,%eax
   1265c:	89 45 f0             	mov    %eax,-0x10(%ebp)
        if (desc->attr == 0) {
   1265f:	8b 45 f0             	mov    -0x10(%ebp),%eax
   12662:	0f b7 40 05          	movzwl 0x5(%eax),%eax
   12666:	66 85 c0             	test   %ax,%ax
   12669:	75 0b                	jne    12676 <gdt_alloc_desc+0x44>
            desc->attr = SEG_P_PRESENT;     
   1266b:	8b 45 f0             	mov    -0x10(%ebp),%eax
   1266e:	66 c7 40 05 80 00    	movw   $0x80,0x5(%eax)
            break;
   12674:	eb 0d                	jmp    12683 <gdt_alloc_desc+0x51>
    for (i = 1; i < GDT_TABLE_SIZE; i++) {
   12676:	83 45 f4 01          	addl   $0x1,-0xc(%ebp)
   1267a:	81 7d f4 ff 00 00 00 	cmpl   $0xff,-0xc(%ebp)
   12681:	7e ce                	jle    12651 <gdt_alloc_desc+0x1f>
        }
    }
    mutex_unlock(&mutex);
   12683:	83 ec 0c             	sub    $0xc,%esp
   12686:	68 e0 51 03 00       	push   $0x351e0
   1268b:	e8 66 57 00 00       	call   17df6 <mutex_unlock>
   12690:	83 c4 10             	add    $0x10,%esp

    return i >= GDT_TABLE_SIZE ? -1 : i * sizeof(segment_desc_t);;
   12693:	81 7d f4 ff 00 00 00 	cmpl   $0xff,-0xc(%ebp)
   1269a:	7f 08                	jg     126a4 <gdt_alloc_desc+0x72>
   1269c:	8b 45 f4             	mov    -0xc(%ebp),%eax
   1269f:	c1 e0 03             	shl    $0x3,%eax
   126a2:	eb 05                	jmp    126a9 <gdt_alloc_desc+0x77>
   126a4:	b8 ff ff ff ff       	mov    $0xffffffff,%eax
}
   126a9:	c9                   	leave  
   126aa:	c3                   	ret    

000126ab <init_gdt>:


void init_gdt(void) {
   126ab:	55                   	push   %ebp
   126ac:	89 e5                	mov    %esp,%ebp
   126ae:	83 ec 10             	sub    $0x10,%esp
    for (int i = 0; i < GDT_TABLE_SIZE; i++) {
   126b1:	c7 45 fc 00 00 00 00 	movl   $0x0,-0x4(%ebp)
   126b8:	eb 19                	jmp    126d3 <init_gdt+0x28>
        segment_desc_set(i << 3, 0, 0, 0);
   126ba:	8b 45 fc             	mov    -0x4(%ebp),%eax
   126bd:	c1 e0 03             	shl    $0x3,%eax
   126c0:	6a 00                	push   $0x0
   126c2:	6a 00                	push   $0x0
   126c4:	6a 00                	push   $0x0
   126c6:	50                   	push   %eax
   126c7:	e8 60 fe ff ff       	call   1252c <segment_desc_set>
   126cc:	83 c4 10             	add    $0x10,%esp
    for (int i = 0; i < GDT_TABLE_SIZE; i++) {
   126cf:	83 45 fc 01          	addl   $0x1,-0x4(%ebp)
   126d3:	81 7d fc ff 00 00 00 	cmpl   $0xff,-0x4(%ebp)
   126da:	7e de                	jle    126ba <init_gdt+0xf>
    }

    segment_desc_set(KERNEL_SELECTOR_DS, 0x00000000, 0xFFFFFFFF,
   126dc:	68 92 c0 00 00       	push   $0xc092
   126e1:	6a ff                	push   $0xffffffff
   126e3:	6a 00                	push   $0x0
   126e5:	6a 10                	push   $0x10
   126e7:	e8 40 fe ff ff       	call   1252c <segment_desc_set>
   126ec:	83 c4 10             	add    $0x10,%esp
                     SEG_P_PRESENT | SEG_DPL0 | SEG_S_NORMAL | SEG_TYPE_DATA
                     | SEG_TYPE_RW | SEG_D | SEG_G);

    segment_desc_set(KERNEL_SELECTOR_CS, 0x00000000, 0xFFFFFFFF,
   126ef:	68 9a c0 00 00       	push   $0xc09a
   126f4:	6a ff                	push   $0xffffffff
   126f6:	6a 00                	push   $0x0
   126f8:	6a 08                	push   $0x8
   126fa:	e8 2d fe ff ff       	call   1252c <segment_desc_set>
   126ff:	83 c4 10             	add    $0x10,%esp
                     SEG_P_PRESENT | SEG_DPL0 | SEG_S_NORMAL | SEG_TYPE_CODE
                     | SEG_TYPE_RW | SEG_D | SEG_G);

    gate_desc_set((gate_desc_t *)(gdt_table + (SELECTOR_SYSCALL >> 3)),
   12702:	ba f8 02 01 00       	mov    $0x102f8,%edx
   12707:	b8 f8 49 03 00       	mov    $0x349f8,%eax
   1270c:	68 05 ec 00 00       	push   $0xec05
   12711:	52                   	push   %edx
   12712:	6a 08                	push   $0x8
   12714:	50                   	push   %eax
   12715:	e8 98 fe ff ff       	call   125b2 <gate_desc_set>
   1271a:	83 c4 10             	add    $0x10,%esp
            KERNEL_SELECTOR_CS,
            (uint32_t)exception_handler_syscall,
            GATE_P_PRESENT | GATE_DPL3 | GATE_TYPE_SYSCALL | SYSCALL_PARAM_COUNT);

    lgdt((uint32_t)gdt_table, sizeof(gdt_table));
   1271d:	b8 e0 49 03 00       	mov    $0x349e0,%eax
   12722:	68 00 08 00 00       	push   $0x800
   12727:	50                   	push   %eax
   12728:	e8 bd fd ff ff       	call   124ea <lgdt>
   1272d:	83 c4 08             	add    $0x8,%esp
}
   12730:	90                   	nop
   12731:	c9                   	leave  
   12732:	c3                   	ret    

00012733 <switch_to_tss>:


void switch_to_tss (uint32_t tss_selector) {
   12733:	55                   	push   %ebp
   12734:	89 e5                	mov    %esp,%ebp
    far_jump(tss_selector, 0);
   12736:	6a 00                	push   $0x0
   12738:	ff 75 08             	pushl  0x8(%ebp)
   1273b:	e8 d2 fd ff ff       	call   12512 <far_jump>
   12740:	83 c4 08             	add    $0x8,%esp
}
   12743:	90                   	nop
   12744:	c9                   	leave  
   12745:	c3                   	ret    

00012746 <cpu_init>:


void cpu_init (void) {
   12746:	55                   	push   %ebp
   12747:	89 e5                	mov    %esp,%ebp
   12749:	83 ec 08             	sub    $0x8,%esp
    mutex_init(&mutex);
   1274c:	83 ec 0c             	sub    $0xc,%esp
   1274f:	68 e0 51 03 00       	push   $0x351e0
   12754:	e8 d8 55 00 00       	call   17d31 <mutex_init>
   12759:	83 c4 10             	add    $0x10,%esp

    init_gdt();
   1275c:	e8 4a ff ff ff       	call   126ab <init_gdt>
}
   12761:	90                   	nop
   12762:	c9                   	leave  
   12763:	c3                   	ret    

00012764 <inb>:
static inline uint8_t inb(uint16_t  port) {
   12764:	55                   	push   %ebp
   12765:	89 e5                	mov    %esp,%ebp
   12767:	83 ec 14             	sub    $0x14,%esp
   1276a:	8b 45 08             	mov    0x8(%ebp),%eax
   1276d:	66 89 45 ec          	mov    %ax,-0x14(%ebp)
	__asm__ __volatile__("inb %[p], %[v]" : [v]"=a" (rv) : [p]"d"(port));
   12771:	0f b7 45 ec          	movzwl -0x14(%ebp),%eax
   12775:	89 c2                	mov    %eax,%edx
   12777:	ec                   	in     (%dx),%al
   12778:	88 45 ff             	mov    %al,-0x1(%ebp)
	return rv;
   1277b:	0f b6 45 ff          	movzbl -0x1(%ebp),%eax
}
   1277f:	c9                   	leave  
   12780:	c3                   	ret    

00012781 <outb>:
static inline void outb(uint16_t port, uint8_t data) {
   12781:	55                   	push   %ebp
   12782:	89 e5                	mov    %esp,%ebp
   12784:	83 ec 08             	sub    $0x8,%esp
   12787:	8b 55 08             	mov    0x8(%ebp),%edx
   1278a:	8b 45 0c             	mov    0xc(%ebp),%eax
   1278d:	66 89 55 fc          	mov    %dx,-0x4(%ebp)
   12791:	88 45 f8             	mov    %al,-0x8(%ebp)
	__asm__ __volatile__("outb %[v], %[p]" : : [p]"d" (port), [v]"a" (data));
   12794:	0f b7 55 fc          	movzwl -0x4(%ebp),%edx
   12798:	0f b6 45 f8          	movzbl -0x8(%ebp),%eax
   1279c:	ee                   	out    %al,(%dx)
}
   1279d:	90                   	nop
   1279e:	c9                   	leave  
   1279f:	c3                   	ret    

000127a0 <cli>:
static inline void cli() {
   127a0:	55                   	push   %ebp
   127a1:	89 e5                	mov    %esp,%ebp
	__asm__ __volatile__("cli");
   127a3:	fa                   	cli    
}
   127a4:	90                   	nop
   127a5:	5d                   	pop    %ebp
   127a6:	c3                   	ret    

000127a7 <sti>:
static inline void sti() {
   127a7:	55                   	push   %ebp
   127a8:	89 e5                	mov    %esp,%ebp
	__asm__ __volatile__("sti");
   127aa:	fb                   	sti    
}
   127ab:	90                   	nop
   127ac:	5d                   	pop    %ebp
   127ad:	c3                   	ret    

000127ae <read_cr2>:
static inline uint32_t read_cr2() {
   127ae:	55                   	push   %ebp
   127af:	89 e5                	mov    %esp,%ebp
   127b1:	83 ec 10             	sub    $0x10,%esp
	__asm__ __volatile__("mov %%cr2, %[v]":[v]"=r"(cr2));
   127b4:	0f 20 d0             	mov    %cr2,%eax
   127b7:	89 45 fc             	mov    %eax,-0x4(%ebp)
	return cr2;
   127ba:	8b 45 fc             	mov    -0x4(%ebp),%eax
}
   127bd:	c9                   	leave  
   127be:	c3                   	ret    

000127bf <lidt>:
static inline void lidt(uint32_t start, uint32_t size) {
   127bf:	55                   	push   %ebp
   127c0:	89 e5                	mov    %esp,%ebp
   127c2:	83 ec 10             	sub    $0x10,%esp
	idt.start31_16 = start >> 16;
   127c5:	8b 45 08             	mov    0x8(%ebp),%eax
   127c8:	c1 e8 10             	shr    $0x10,%eax
   127cb:	66 89 45 fe          	mov    %ax,-0x2(%ebp)
	idt.start15_0 = start & 0xFFFF;
   127cf:	8b 45 08             	mov    0x8(%ebp),%eax
   127d2:	66 89 45 fc          	mov    %ax,-0x4(%ebp)
	idt.limit = size - 1;
   127d6:	8b 45 0c             	mov    0xc(%ebp),%eax
   127d9:	83 e8 01             	sub    $0x1,%eax
   127dc:	66 89 45 fa          	mov    %ax,-0x6(%ebp)
	__asm__ __volatile__("lidt %0"::"m"(idt));
   127e0:	0f 01 5d fa          	lidtl  -0x6(%ebp)
}
   127e4:	90                   	nop
   127e5:	c9                   	leave  
   127e6:	c3                   	ret    

000127e7 <hlt>:
static inline void hlt(void) {
   127e7:	55                   	push   %ebp
   127e8:	89 e5                	mov    %esp,%ebp
    __asm__ __volatile__("hlt");
   127ea:	f4                   	hlt    
}
   127eb:	90                   	nop
   127ec:	5d                   	pop    %ebp
   127ed:	c3                   	ret    

000127ee <read_eflags>:

static inline uint32_t read_eflags (void) {
   127ee:	55                   	push   %ebp
   127ef:	89 e5                	mov    %esp,%ebp
   127f1:	83 ec 10             	sub    $0x10,%esp
    uint32_t eflags;

    __asm__ __volatile__("pushfl\n\tpopl %%eax":"=a"(eflags));
   127f4:	9c                   	pushf  
   127f5:	58                   	pop    %eax
   127f6:	89 45 fc             	mov    %eax,-0x4(%ebp)
    return eflags;
   127f9:	8b 45 fc             	mov    -0x4(%ebp),%eax
}
   127fc:	c9                   	leave  
   127fd:	c3                   	ret    

000127fe <write_eflags>:

static inline void write_eflags (uint32_t eflags) {
   127fe:	55                   	push   %ebp
   127ff:	89 e5                	mov    %esp,%ebp
    __asm__ __volatile__("pushl %%eax\n\tpopfl"::"a"(eflags));
   12801:	8b 45 08             	mov    0x8(%ebp),%eax
   12804:	50                   	push   %eax
   12805:	9d                   	popf   
}
   12806:	90                   	nop
   12807:	5d                   	pop    %ebp
   12808:	c3                   	ret    

00012809 <dump_core_regs>:

#define IDT_TABLE_NR			128				

static gate_desc_t idt_table[IDT_TABLE_NR];	

static void dump_core_regs (exception_frame_t * frame) {
   12809:	55                   	push   %ebp
   1280a:	89 e5                	mov    %esp,%ebp
   1280c:	57                   	push   %edi
   1280d:	56                   	push   %esi
   1280e:	53                   	push   %ebx
   1280f:	83 ec 2c             	sub    $0x2c,%esp
    uint32_t esp, ss;
    if (frame->cs & 0x7) {
   12812:	8b 45 08             	mov    0x8(%ebp),%eax
   12815:	8b 40 3c             	mov    0x3c(%eax),%eax
   12818:	83 e0 07             	and    $0x7,%eax
   1281b:	85 c0                	test   %eax,%eax
   1281d:	74 14                	je     12833 <dump_core_regs+0x2a>
        ss = frame->ds;
   1281f:	8b 45 08             	mov    0x8(%ebp),%eax
   12822:	8b 40 0c             	mov    0xc(%eax),%eax
   12825:	89 45 e0             	mov    %eax,-0x20(%ebp)
        esp = frame->esp;
   12828:	8b 45 08             	mov    0x8(%ebp),%eax
   1282b:	8b 40 1c             	mov    0x1c(%eax),%eax
   1282e:	89 45 e4             	mov    %eax,-0x1c(%ebp)
   12831:	eb 12                	jmp    12845 <dump_core_regs+0x3c>
    } else {
        ss = frame->ss3;
   12833:	8b 45 08             	mov    0x8(%ebp),%eax
   12836:	8b 40 48             	mov    0x48(%eax),%eax
   12839:	89 45 e0             	mov    %eax,-0x20(%ebp)
        esp = frame->esp3;
   1283c:	8b 45 08             	mov    0x8(%ebp),%eax
   1283f:	8b 40 44             	mov    0x44(%eax),%eax
   12842:	89 45 e4             	mov    %eax,-0x1c(%ebp)
    }
    log_printf("IRQ: %d, error code: %d.", frame->num, frame->error_code);
   12845:	8b 45 08             	mov    0x8(%ebp),%eax
   12848:	8b 50 34             	mov    0x34(%eax),%edx
   1284b:	8b 45 08             	mov    0x8(%ebp),%eax
   1284e:	8b 40 30             	mov    0x30(%eax),%eax
   12851:	83 ec 04             	sub    $0x4,%esp
   12854:	52                   	push   %edx
   12855:	50                   	push   %eax
   12856:	68 48 90 01 00       	push   $0x19048
   1285b:	e8 c6 61 00 00       	call   18a26 <log_printf>
   12860:	83 c4 10             	add    $0x10,%esp
    log_printf("CS: %d\nDS: %d\nES: %d\nSS: %d\nFS:%d\nGS:%d",
   12863:	8b 45 08             	mov    0x8(%ebp),%eax
   12866:	8b 30                	mov    (%eax),%esi
   12868:	8b 45 08             	mov    0x8(%ebp),%eax
   1286b:	8b 58 04             	mov    0x4(%eax),%ebx
   1286e:	8b 45 08             	mov    0x8(%ebp),%eax
   12871:	8b 48 08             	mov    0x8(%eax),%ecx
   12874:	8b 45 08             	mov    0x8(%ebp),%eax
   12877:	8b 50 0c             	mov    0xc(%eax),%edx
   1287a:	8b 45 08             	mov    0x8(%ebp),%eax
   1287d:	8b 40 3c             	mov    0x3c(%eax),%eax
   12880:	83 ec 04             	sub    $0x4,%esp
   12883:	56                   	push   %esi
   12884:	53                   	push   %ebx
   12885:	ff 75 e0             	pushl  -0x20(%ebp)
   12888:	51                   	push   %ecx
   12889:	52                   	push   %edx
   1288a:	50                   	push   %eax
   1288b:	68 64 90 01 00       	push   $0x19064
   12890:	e8 91 61 00 00       	call   18a26 <log_printf>
   12895:	83 c4 20             	add    $0x20,%esp
               frame->cs, frame->ds, frame->es, ss, frame->fs, frame->gs
    );
     log_printf("EAX:0x%x\n"
   12898:	8b 45 08             	mov    0x8(%ebp),%eax
   1289b:	8b 40 18             	mov    0x18(%eax),%eax
   1289e:	89 45 d4             	mov    %eax,-0x2c(%ebp)
   128a1:	8b 45 08             	mov    0x8(%ebp),%eax
   128a4:	8b 78 14             	mov    0x14(%eax),%edi
   128a7:	8b 45 08             	mov    0x8(%ebp),%eax
   128aa:	8b 70 10             	mov    0x10(%eax),%esi
   128ad:	8b 45 08             	mov    0x8(%ebp),%eax
   128b0:	8b 58 24             	mov    0x24(%eax),%ebx
   128b3:	8b 45 08             	mov    0x8(%ebp),%eax
   128b6:	8b 48 28             	mov    0x28(%eax),%ecx
   128b9:	8b 45 08             	mov    0x8(%ebp),%eax
   128bc:	8b 50 20             	mov    0x20(%eax),%edx
   128bf:	8b 45 08             	mov    0x8(%ebp),%eax
   128c2:	8b 40 2c             	mov    0x2c(%eax),%eax
   128c5:	83 ec 0c             	sub    $0xc,%esp
   128c8:	ff 75 e4             	pushl  -0x1c(%ebp)
   128cb:	ff 75 d4             	pushl  -0x2c(%ebp)
   128ce:	57                   	push   %edi
   128cf:	56                   	push   %esi
   128d0:	53                   	push   %ebx
   128d1:	51                   	push   %ecx
   128d2:	52                   	push   %edx
   128d3:	50                   	push   %eax
   128d4:	68 8c 90 01 00       	push   $0x1908c
   128d9:	e8 48 61 00 00       	call   18a26 <log_printf>
   128de:	83 c4 30             	add    $0x30,%esp
                "ESI:0x%x\n"
                "EBP:0x%x\n"
                "ESP:0x%x\n",
               frame->eax, frame->ebx, frame->ecx, frame->edx,
               frame->edi, frame->esi, frame->ebp, esp);
    log_printf("EIP:0x%x\nEFLAGS:0x%x\n", frame->eip, frame->eflags);
   128e1:	8b 45 08             	mov    0x8(%ebp),%eax
   128e4:	8b 50 40             	mov    0x40(%eax),%edx
   128e7:	8b 45 08             	mov    0x8(%ebp),%eax
   128ea:	8b 40 38             	mov    0x38(%eax),%eax
   128ed:	83 ec 04             	sub    $0x4,%esp
   128f0:	52                   	push   %edx
   128f1:	50                   	push   %eax
   128f2:	68 d5 90 01 00       	push   $0x190d5
   128f7:	e8 2a 61 00 00       	call   18a26 <log_printf>
   128fc:	83 c4 10             	add    $0x10,%esp
}
   128ff:	90                   	nop
   12900:	8d 65 f4             	lea    -0xc(%ebp),%esp
   12903:	5b                   	pop    %ebx
   12904:	5e                   	pop    %esi
   12905:	5f                   	pop    %edi
   12906:	5d                   	pop    %ebp
   12907:	c3                   	ret    

00012908 <do_default_handler>:

static void do_default_handler (exception_frame_t * frame, const char * message) {
   12908:	55                   	push   %ebp
   12909:	89 e5                	mov    %esp,%ebp
   1290b:	83 ec 08             	sub    $0x8,%esp
    log_printf("--------------------------------");
   1290e:	83 ec 0c             	sub    $0xc,%esp
   12911:	68 ec 90 01 00       	push   $0x190ec
   12916:	e8 0b 61 00 00       	call   18a26 <log_printf>
   1291b:	83 c4 10             	add    $0x10,%esp
    log_printf("IRQ/Exception happend: %s.", message);
   1291e:	83 ec 08             	sub    $0x8,%esp
   12921:	ff 75 0c             	pushl  0xc(%ebp)
   12924:	68 0d 91 01 00       	push   $0x1910d
   12929:	e8 f8 60 00 00       	call   18a26 <log_printf>
   1292e:	83 c4 10             	add    $0x10,%esp
    dump_core_regs(frame);
   12931:	83 ec 0c             	sub    $0xc,%esp
   12934:	ff 75 08             	pushl  0x8(%ebp)
   12937:	e8 cd fe ff ff       	call   12809 <dump_core_regs>
   1293c:	83 c4 10             	add    $0x10,%esp
    

    log_printf("--------------------------------");
   1293f:	83 ec 0c             	sub    $0xc,%esp
   12942:	68 ec 90 01 00       	push   $0x190ec
   12947:	e8 da 60 00 00       	call   18a26 <log_printf>
   1294c:	83 c4 10             	add    $0x10,%esp
    if (frame->cs & 0x3) {
   1294f:	8b 45 08             	mov    0x8(%ebp),%eax
   12952:	8b 40 3c             	mov    0x3c(%eax),%eax
   12955:	83 e0 03             	and    $0x3,%eax
   12958:	85 c0                	test   %eax,%eax
   1295a:	74 14                	je     12970 <do_default_handler+0x68>
        sys_exit(frame->error_code);
   1295c:	8b 45 08             	mov    0x8(%ebp),%eax
   1295f:	8b 40 34             	mov    0x34(%eax),%eax
   12962:	83 ec 0c             	sub    $0xc,%esp
   12965:	50                   	push   %eax
   12966:	e8 2c fa ff ff       	call   12397 <sys_exit>
   1296b:	83 c4 10             	add    $0x10,%esp
    } else {
        for (;;) {
            hlt();
        }
    }
}
   1296e:	eb 07                	jmp    12977 <do_default_handler+0x6f>
            hlt();
   12970:	e8 72 fe ff ff       	call   127e7 <hlt>
   12975:	eb f9                	jmp    12970 <do_default_handler+0x68>
}
   12977:	c9                   	leave  
   12978:	c3                   	ret    

